(dp1
S'collector'
p2
S'coverage v3.0b3'
p3
sS'lines'
p4
(dp5
S'/private/var/folders/tY/tYk-BLGGGju0p1L+Vn3SHU+++TM/-Tmp-/tmp8RpW-L/zc.buildout-1.2.1-py2.5.egg/zc/buildout/rmtree.py'
p6
(lp7
I65
aI16
aI17
aI18
aI20
aI62
asS'/private/var/folders/tY/tYk-BLGGGju0p1L+Vn3SHU+++TM/-Tmp-/tmpF824nt/zc.buildout-1.2.1-py2.5.egg/zc/__init__.py'
p8
(lp9
I1
aI2
asS'/private/var/folders/tY/tYk-BLGGGju0p1L+Vn3SHU+++TM/-Tmp-/tmpZHHBGu/zc.buildout-1.2.1-py2.5.egg/zc/buildout/rmtree.py'
p10
(lp11
I65
aI16
aI17
aI18
aI20
aI62
asS'/Users/tobias/projects/appengine/bridal/trunk/demo/eggs/zope.interface-3.5.1-py2.5-macosx-10.3-i386.egg/zope/interface/declarations.py'
p12
(lp13
I1024
aI512
aI1026
aI516
aI1030
aI519
aI520
aI522
aI1050
aI28
aI29
aI31
aI32
aI33
aI34
aI35
aI36
aI37
aI1365
aI40
aI1372
aI42
aI43
aI45
aI46
aI48
aI49
aI50
aI51
aI52
aI53
aI55
aI864
aI582
aI584
aI82
aI1382
aI1131
aI110
aI1137
aI1385
aI640
aI646
aI1160
aI1161
aI650
aI1164
aI653
aI654
aI143
aI1168
aI657
aI1172
aI1173
aI662
aI1179
aI689
aI693
aI695
aI186
aI460
aI377
aI996
aI1247
aI236
aI1261
aI750
aI751
aI752
aI753
aI755
aI756
aI245
aI759
aI248
aI251
aI253
aI255
aI258
aI261
aI335
aI1032
aI473
aI513
aI1311
aI1316
aI1318
aI988
aI299
aI300
aI419
aI989
aI1018
aI931
aI505
aI1350
aI481
aI840
aI652
aI1354
aI331
aI482
aI334
aI847
aI848
aI1362
aI851
aI340
aI853
aI1366
aI1367
aI856
aI1369
aI1370
aI655
aI348
aI861
aI1374
aI1376
aI1377
aI354
aI355
aI1381
aI358
aI1383
aI360
aI361
aI362
aI363
aI365
aI367
aI336
aI369
aI370
aI371
aI374
aI375
aI660
aI379
aI381
aI383
aI416
aI417
aI418
aI347
aI421
aI841
aI970
aI972
aI461
aI464
aI465
aI466
aI467
aI468
aI469
aI471
aI985
aI474
aI475
aI476
aI477
aI479
aI993
aI760
aI483
aI484
aI485
aI488
aI490
aI493
aI1363
aI852
aI506
aI507
aI1020
aI1021
aI1022
aI1023
asS'/Users/tobias/projects/appengine/demo/eggs/nose-0.11.1-py2.5.egg/nose/result.py'
p14
(lp15
I137
aI138
aI161
aI34
aI35
aI36
aI37
aI39
aI40
aI47
aI48
aI49
aI50
aI54
aI55
aI70
aI71
aI72
aI73
aI74
aI75
aI76
aI162
aI81
aI82
aI83
aI84
aI87
aI88
asS'/Users/tobias/projects/appengine/bridal/trunk/demo/eggs/nose-0.11.1-py2.5.egg/nose/failure.py'
p16
(lp17
I36
aI37
aI21
aI22
aI23
aI24
aI25
aI26
aI29
aI30
asS'/Applications/Utilities/GoogleAppEngineLauncher.app/Contents/Resources/GoogleAppEngine-default.bundle/Contents/Resources/google_appengine/google/appengine/api/user_service_stub.py'
p18
(lp19
I50
aI51
aI52
aI53
aI55
asS'/Users/tobias/projects/appengine/demo/pkg_resources.py'
p20
(lp21
I2058
aI2059
aI2060
aI2061
aI2062
aI2067
aI2068
aI2069
aI2070
aI2071
aI2077
aI2078
aI2079
aI2080
aI2081
aI2082
aI2083
aI2095
aI2096
aI2097
aI2098
aI2099
aI2100
aI2101
aI2102
aI2103
aI2108
aI2109
aI2110
aI2111
aI2118
aI2121
aI2122
aI2123
aI2127
aI2128
aI2129
aI2130
aI2131
aI2159
aI2160
aI2161
aI2165
aI2166
aI2167
aI2184
aI2185
aI2186
aI2187
aI2188
aI2190
aI2191
aI2196
aI2219
aI2220
aI2223
aI2224
aI2226
aI2227
aI2228
aI2230
aI2231
aI2232
aI2233
aI2234
aI2236
aI2237
aI2238
aI2240
aI2241
aI2244
aI2245
aI2246
aI2247
aI2248
aI2253
aI376
aI2258
aI2261
aI214
aI2263
aI2264
aI217
aI218
aI2267
aI378
aI222
aI2278
aI2279
aI380
aI2283
aI241
aI242
aI248
aI251
aI384
aI269
aI270
aI271
aI273
aI281
aI2346
aI2348
aI2350
aI2352
aI2376
aI2377
aI2378
aI2380
aI2381
aI2382
aI2384
aI2385
aI2386
aI2388
aI2389
aI2390
aI2391
aI2392
aI2395
aI2396
aI2397
aI2401
aI2402
aI2403
aI421
aI375
aI2424
aI2425
aI2426
aI2427
aI2428
aI2429
aI2431
aI2432
aI2434
aI397
aI2446
aI399
aI2448
aI2451
aI2452
aI2458
aI2459
aI2463
aI2469
aI422
aI2471
aI2472
aI425
aI2491
aI2492
aI2493
aI2494
aI2498
aI2499
aI2500
aI458
aI459
aI460
aI461
aI462
aI463
aI2517
aI2518
aI2519
aI2520
aI2521
aI2522
aI476
aI477
aI479
aI480
aI481
aI482
aI483
aI2532
aI2470
aI486
aI487
aI488
aI489
aI491
aI505
aI506
aI507
aI508
aI510
aI511
aI512
aI515
aI516
aI518
aI519
aI520
aI521
aI522
aI523
aI525
aI526
aI529
aI530
aI532
aI2582
aI626
aI628
aI629
aI631
aI644
aI645
aI677
aI678
aI679
aI680
aI681
aI690
aI691
aI692
aI706
aI709
aI710
aI711
aI716
aI717
aI718
aI719
aI720
aI723
aI724
aI725
aI727
aI731
aI732
aI733
aI734
aI735
aI752
aI753
aI755
aI756
aI757
aI2524
aI2525
aI2529
aI484
aI1072
aI1081
aI1082
aI377
aI1132
aI1135
aI1137
aI1140
aI1150
aI1191
aI1192
aI1215
aI1216
aI1217
aI1218
aI1219
aI1220
aI1221
aI1222
aI1235
aI1247
aI1248
aI1249
aI1251
aI383
aI213
aI2262
aI1286
aI219
aI1379
aI1380
aI1381
aI1382
aI1383
aI1384
aI1385
aI1386
aI1387
aI1388
aI1389
aI1391
aI1392
aI1393
aI1396
aI1397
aI1403
aI1449
aI1452
aI1455
aI1456
aI1460
aI1498
aI1499
aI1508
aI1509
aI1510
aI1511
aI1514
aI1515
aI1285
aI1614
aI1615
aI1616
aI1619
aI1620
aI1621
aI1622
aI1623
aI1624
aI1625
aI1642
aI1647
aI1649
aI1650
aI1652
aI1653
aI1654
aI1659
aI1660
aI1661
aI1662
aI1663
aI1667
aI1668
aI1669
aI1671
aI1672
aI1673
aI1674
aI1704
aI1705
aI1707
aI1708
aI1709
aI1710
aI1711
aI1712
aI1713
aI1716
aI1717
aI1718
aI1719
aI1720
aI1721
aI1726
aI1727
aI1728
aI1729
aI1731
aI1732
aI1743
aI1744
aI1746
aI1749
aI1752
aI1756
aI1757
aI1758
aI1759
aI1760
aI1762
aI1767
aI1768
aI1769
aI1774
aI400
aI1788
aI1791
aI1792
aI1793
aI1794
aI1795
aI1798
aI1799
aI1800
aI1807
aI1808
aI1809
aI1810
aI1811
aI2447
aI1813
aI1814
aI1815
aI1835
aI1836
aI1837
aI1838
aI1839
aI1840
aI1844
aI1877
aI1878
aI1879
aI1880
aI1883
aI1885
aI1886
aI1892
aI1894
aI1895
aI1896
aI1897
aI1898
aI1940
aI1941
aI1942
aI1943
aI1948
aI1949
aI1950
aI1952
aI1959
aI1973
aI1975
aI1976
aI1977
aI1978
aI1980
aI1981
aI1988
aI1991
aI1992
aI1993
aI1994
aI398
aI1998
aI1999
aI2001
aI2002
aI2017
aI2018
aI2019
aI2020
aI2021
aI2022
aI2023
aI2024
aI2028
aI2029
aI2030
aI2031
aI2032
aI2033
aI2034
aI2036
aI2037
aI2038
aI2044
aI2045
aI2046
asS'/Users/tobias/projects/appengine/demo/archive_util.py'
p22
(lp23
I1
aI43
aI165
aI6
aI200
aI9
aI10
aI11
aI13
aI14
aI16
aI83
aI124
aI42
aI5
asS'/Users/tobias/projects/appengine/demo/eggs/nose-0.11.1-py2.5.egg/nose/plugins/logcapture.py'
p24
(lp25
I128
aI129
aI140
aI141
aI142
aI143
aI145
aI163
aI39
aI168
aI41
aI47
aI48
aI179
aI180
aI181
aI182
aI183
aI186
aI187
aI190
aI191
aI192
asS'/Users/tobias/projects/appengine/bridal/trunk/demo/archive_util.py'
p26
(lp27
I1
aI43
aI165
aI6
aI200
aI9
aI10
aI11
aI13
aI14
aI16
aI83
aI124
aI42
aI5
asS'/Users/tobias/projects/appengine/bridal/trunk/demo/install.py'
p28
(lp29
I1
aI2
aI3
aI5
aI6
aI8
aI9
aI42
aI11
aI13
aI14
aI17
aI18
aI83
aI20
aI53
aI22
aI23
aI25
aI31
asS'/Users/tobias/projects/appengine/demo/eggs/nose-0.11.1-py2.5.egg/nose/core.py'
p30
(lp31
I172
aI34
aI36
aI37
aI41
aI42
aI43
aI44
aI173
aI50
aI51
aI55
aI56
aI185
aI186
aI59
aI60
aI61
aI62
aI63
aI192
aI184
aI187
aI178
aI188
aI189
aI190
asS'/private/var/folders/tY/tYk-BLGGGju0p1L+Vn3SHU+++TM/-Tmp-/tmp1FPDfZ/zc.buildout-1.2.1-py2.5.egg/zc/buildout/easy_install.py'
p32
(lp33
I1026
aI1028
aI1030
aI1031
aI1032
aI1035
aI1036
aI1037
aI1038
aI1039
aI1040
aI1041
aI1042
aI1044
aI21
aI1046
aI23
aI24
aI25
aI26
aI27
aI28
aI29
aI30
aI1055
aI32
aI33
aI34
aI35
aI36
aI37
aI38
aI39
aI1064
aI41
aI42
aI43
aI45
aI46
aI47
aI1073
aI50
aI52
aI54
aI55
aI57
aI1085
aI63
aI1088
aI69
aI70
aI71
aI74
aI76
aI78
aI79
aI594
aI1120
aI100
aI102
aI615
aI106
aI107
aI113
aI114
aI628
aI1147
aI132
aI134
aI1160
aI1162
aI1164
aI142
aI143
aI1169
aI146
aI148
aI149
aI150
aI151
aI152
aI153
aI154
aI1179
aI157
aI158
aI159
aI160
aI161
aI162
aI163
aI164
aI165
aI166
aI684
aI1197
aI1205
aI1206
aI31
aI1212
aI202
aI750
aI756
aI757
aI758
aI1065
aI760
aI761
aI762
aI764
aI770
aI771
aI772
aI773
aI774
aI776
aI777
aI778
aI779
aI780
aI782
aI783
aI784
aI785
aI786
aI788
aI1070
aI795
aI796
aI797
aI798
aI291
aI806
aI807
aI808
aI299
aI815
aI1067
aI822
aI838
aI839
aI140
aI399
aI64
aI906
aI910
aI911
aI912
aI913
aI914
aI915
aI918
aI919
aI920
aI922
aI924
aI928
aI931
aI932
aI933
aI934
aI935
aI936
aI937
aI938
aI939
aI940
aI1181
aI945
aI946
aI951
aI953
aI954
aI956
aI957
aI958
aI961
aI966
aI455
aI968
aI969
aI759
aI1186
aI979
aI980
aI981
aI984
aI473
aI996
aI1190
aI1009
asS'/Users/tobias/projects/appengine/demo/eggs/nose-0.11.1-py2.5.egg/nose/case.py'
p34
(lp35
I128
aI129
aI258
aI131
aI132
aI261
aI262
aI226
aI139
aI130
aI146
aI147
aI148
aI150
aI153
aI154
aI28
aI157
aI158
aI287
aI32
aI33
aI162
aI35
aI36
aI37
aI38
aI39
aI40
aI41
aI171
aI44
aI47
aI48
aI50
aI183
aI58
aI59
aI188
aI189
aI190
aI63
aI192
aI68
aI69
aI161
aI73
aI290
aI156
aI163
aI228
aI186
aI229
aI224
aI225
aI98
aI227
aI100
aI101
aI102
aI103
aI99
aI169
aI249
aI252
aI253
aI127
asS'/Users/tobias/projects/appengine/demo/eggs/zope.tal-3.5.1-py2.5.egg/zope/tal/talparser.py'
p36
(lp37
I128
aI141
aI17
aI18
aI19
aI20
aI23
aI25
aI27
aI36
aI39
aI44
aI47
aI65
aI89
aI90
aI91
aI92
aI95
aI110
aI121
aI125
asS'/Applications/Utilities/GoogleAppEngineLauncher.app/Contents/Resources/GoogleAppEngine-default.bundle/Contents/Resources/google_appengine/google/appengine/ext/gql/__init__.py'
p38
(lp39
I1039
aI1041
aI1042
aI1043
aI1046
aI23
aI1048
aI1049
aI1050
aI1051
aI29
aI30
aI31
aI32
aI33
aI1059
aI1060
aI37
aI1062
aI1064
aI1066
aI1067
aI44
aI1069
aI1070
aI723
aI1078
aI1079
aI180
aI1082
aI1086
aI693
aI1088
aI1090
aI67
aI694
aI183
aI1105
aI1107
aI185
aI698
aI1118
aI611
aI1128
aI1131
aI1135
aI1137
aI1140
aI630
aI1144
aI644
aI646
aI647
aI650
aI806
aI660
aI661
aI151
aI665
aI667
aI671
aI161
aI163
aI165
aI167
aI681
aI682
aI683
aI684
aI685
aI686
aI687
aI688
aI689
aI690
aI691
aI692
aI181
aI182
aI695
aI184
aI697
aI186
aI187
aI188
aI701
aI190
aI191
aI192
aI196
aI198
aI719
aI721
aI722
aI35
aI724
aI725
aI726
aI727
aI728
aI36
aI730
aI219
aI220
aI221
aI223
aI224
aI225
aI739
aI228
aI38
aI230
aI231
aI232
aI234
aI235
aI236
aI237
aI40
aI754
aI755
aI756
aI245
aI758
aI759
aI760
aI250
aI763
aI42
aI767
aI258
aI259
aI260
aI262
aI776
aI265
aI778
aI267
aI780
aI789
aI790
aI791
aI792
aI794
aI287
aI289
aI804
aI805
aI294
aI807
aI808
aI813
aI822
aI824
aI826
aI319
aI326
aI312
aI852
aI343
aI350
aI742
aI360
aI46
aI882
aI149
aI898
aI393
aI663
aI932
aI753
aI696
aI430
aI947
aI543
aI244
aI296
aI757
aI968
aI460
aI675
aI762
aI677
aI337
aI679
aI1008
aI505
aI509
asS'/private/var/folders/tY/tYk-BLGGGju0p1L+Vn3SHU+++TM/-Tmp-/tmphrxJOz/zc.buildout-1.2.1-py2.5.egg/zc/__init__.py'
p40
(lp41
I1
aI2
asS'/Users/tobias/projects/appengine/bridal/trunk/demo/eggs/nose-0.11.1-py2.5.egg/nose/suite.py'
p42
(lp43
I512
aI513
aI514
aI515
aI516
aI517
aI518
aI521
aI522
aI524
aI533
aI534
aI537
aI45
aI60
aI63
aI64
aI65
aI66
aI67
aI68
aI69
aI70
aI71
aI72
aI78
aI79
aI80
aI81
aI82
aI83
aI84
aI87
aI88
aI89
aI90
aI91
aI97
aI98
aI132
aI133
aI134
aI135
aI137
aI138
aI139
aI140
aI141
aI150
aI154
aI178
aI179
aI182
aI183
aI189
aI190
aI191
aI197
aI199
aI200
aI201
aI241
aI242
aI244
aI245
aI246
aI249
aI250
aI251
aI254
aI255
aI257
aI258
aI259
aI260
aI261
aI262
aI263
aI264
aI265
aI269
aI270
aI273
aI274
aI275
aI276
aI280
aI281
aI282
aI284
aI285
aI286
aI287
aI295
aI296
aI297
aI298
aI299
aI300
aI301
aI302
aI303
aI309
aI310
aI311
aI312
aI313
aI314
aI317
aI318
aI319
aI320
aI321
aI322
aI323
aI328
aI329
aI330
aI332
aI333
aI334
aI336
aI337
aI338
aI339
aI340
aI344
aI345
aI346
aI348
aI349
aI350
aI366
aI368
aI369
aI373
aI374
aI375
aI376
aI377
aI378
aI379
aI390
aI391
aI392
aI393
aI394
aI395
aI396
aI399
aI407
aI408
aI413
aI415
aI416
aI417
aI418
aI421
aI422
aI423
aI424
aI427
aI428
aI429
aI430
aI432
aI433
aI434
aI435
aI436
aI441
aI444
aI445
aI446
aI447
aI448
aI449
aI450
aI451
aI452
aI453
aI454
aI455
aI456
aI509
aI510
aI511
asS'/Applications/Utilities/GoogleAppEngineLauncher.app/Contents/Resources/GoogleAppEngine-default.bundle/Contents/Resources/google_appengine/google/appengine/api/appinfo.py'
p44
(lp45
I260
aI264
aI283
aI284
aI383
aI330
aI331
aI334
aI223
aI379
aI356
aI357
aI358
aI359
aI361
aI362
aI364
aI366
aI241
aI242
aI243
aI244
aI249
aI378
aI251
aI252
aI253
aI254
aI255
asS'/Users/tobias/projects/appengine/demo/eggs/zope.component-3.7.0-py2.5.egg/zope/component/__init__.py'
p46
(lp47
I17
aI18
aI19
aI20
aI21
aI23
aI24
aI25
aI26
aI27
aI29
aI30
aI31
aI32
aI33
aI34
aI36
aI37
aI38
aI39
aI40
aI41
aI42
aI43
aI44
aI45
aI46
aI47
aI48
aI49
aI50
aI51
aI52
aI53
aI54
aI55
aI57
aI58
aI59
aI61
aI62
asS'/Users/tobias/projects/appengine/demo/src/demo/tests/__init__.py'
p48
(lp49
I3
aI4
aI5
aI6
aI7
aI8
aI11
aI14
aI15
aI17
aI18
aI19
aI20
aI21
aI22
aI24
aI25
aI26
aI27
aI28
aI29
aI31
aI32
aI33
aI35
aI36
aI37
aI38
aI39
aI40
aI41
aI42
aI44
aI45
aI46
aI47
aI48
aI49
aI53
aI54
aI55
asS'/Applications/Utilities/GoogleAppEngineLauncher.app/Contents/Resources/GoogleAppEngine-default.bundle/Contents/Resources/google_appengine/google/appengine/api/datastore.py'
p50
(lp51
I512
aI513
aI516
aI518
aI522
aI1552
aI1557
aI1561
aI1564
aI1565
aI1566
aI543
aI544
aI545
aI546
aI1061
aI551
aI553
aI554
aI555
aI556
aI558
aI560
aI561
aI562
aI563
aI569
aI570
aI573
aI574
aI575
aI576
aI1601
aI1602
aI1603
aI584
aI585
aI587
aI589
aI591
aI81
aI82
aI84
aI86
aI87
aI89
aI90
aI100
aI1142
aI1144
aI1145
aI1146
aI1147
aI1148
aI1149
aI1150
aI1151
aI1152
aI1155
aI1156
aI1157
aI1160
aI1161
aI1163
aI144
aI146
aI149
aI150
aI154
aI155
aI157
aI158
aI159
aI1184
aI1185
aI1186
aI1187
aI164
aI1189
aI168
aI169
aI170
aI171
aI541
aI176
aI177
aI179
aI182
aI185
aI1567
aI1568
aI1569
aI716
aI717
aI719
aI720
aI721
aI722
aI724
aI725
aI1573
aI1915
aI1575
aI1578
aI772
aI774
aI775
aI776
aI781
aI784
aI785
aI786
aI788
aI789
aI796
aI798
aI805
aI806
aI295
aI296
aI297
aI299
aI300
aI302
aI1843
aI1844
aI309
aI310
aI1847
aI312
aI1849
aI318
aI1845
aI897
aI323
aI325
aI327
aI333
aI1848
aI338
aI343
aI1880
aI361
aI370
aI371
aI1911
aI1912
aI1914
aI319
aI1916
aI1917
aI1919
aI1921
aI901
aI902
aI904
aI905
aI1517
aI915
aI1518
aI496
aI954
aI959
aI964
aI162
aI163
aI1617
aI493
aI494
aI1519
aI1520
aI497
aI498
aI499
aI501
aI502
aI503
aI504
aI505
aI506
aI508
aI509
asS'/private/var/folders/tY/tYk-BLGGGju0p1L+Vn3SHU+++TM/-Tmp-/tmpWPFu1Z/zc.buildout-1.2.1-py2.5.egg/zc/__init__.py'
p52
(lp53
I1
aI2
asS'/private/var/folders/tY/tYk-BLGGGju0p1L+Vn3SHU+++TM/-Tmp-/tmprYL_to/zc.buildout-1.2.1-py2.5.egg/zc/buildout/easy_install.py'
p54
(lp55
I1026
aI1028
aI1030
aI1031
aI1032
aI1035
aI1036
aI1037
aI1038
aI1039
aI1040
aI1041
aI1042
aI1044
aI21
aI1046
aI23
aI24
aI25
aI26
aI27
aI28
aI29
aI30
aI1055
aI32
aI33
aI34
aI35
aI36
aI37
aI38
aI39
aI1064
aI1065
aI42
aI1067
aI45
aI1070
aI47
aI1073
aI50
aI52
aI54
aI55
aI57
aI1085
aI63
aI64
aI69
aI70
aI71
aI74
aI76
aI78
aI79
aI594
aI1120
aI100
aI102
aI615
aI106
aI107
aI113
aI114
aI628
aI1147
aI132
aI134
aI1160
aI1162
aI1164
aI142
aI143
aI1169
aI146
aI148
aI149
aI150
aI151
aI152
aI153
aI154
aI1179
aI1181
aI158
aI159
aI160
aI161
aI1186
aI163
aI164
aI165
aI1190
aI684
aI1197
aI1205
aI1206
aI31
aI1212
aI202
aI750
aI756
aI757
aI758
aI41
aI760
aI761
aI762
aI764
aI770
aI771
aI772
aI773
aI774
aI776
aI777
aI778
aI779
aI780
aI782
aI783
aI784
aI785
aI786
aI788
aI46
aI795
aI796
aI797
aI798
aI291
aI806
aI807
aI808
aI299
aI815
aI822
aI838
aI839
aI140
aI43
aI399
aI1088
aI906
aI910
aI911
aI912
aI913
aI914
aI915
aI918
aI919
aI920
aI922
aI924
aI928
aI931
aI932
aI933
aI934
aI935
aI936
aI937
aI938
aI939
aI940
aI157
aI945
aI946
aI951
aI953
aI954
aI956
aI957
aI958
aI961
aI966
aI455
aI968
aI969
aI759
aI162
aI979
aI980
aI981
aI984
aI473
aI996
aI166
aI1009
asS'/Users/tobias/projects/appengine/demo/eggs/nose-0.11.1-py2.5.egg/nose/plugins/manager.py'
p56
(lp57
I132
aI133
aI134
aI135
aI136
aI137
aI149
aI150
aI151
aI152
aI231
aI160
aI161
aI167
aI71
aI72
aI106
aI76
aI77
aI78
aI79
aI82
aI88
aI89
aI90
aI91
aI92
aI93
aI94
aI229
aI97
aI101
aI230
aI103
aI232
aI233
aI234
aI107
aI108
aI111
aI104
aI117
aI120
aI121
aI122
aI123
aI124
aI125
aI126
aI127
asS'/private/var/folders/tY/tYk-BLGGGju0p1L+Vn3SHU+++TM/-Tmp-/tmptSkiSH/zc.buildout-1.2.1-py2.5.egg/zc/buildout/buildout.py'
p58
(lp59
I17
aI19
aI20
aI21
aI22
aI23
aI24
aI25
aI26
aI27
aI28
aI29
aI30
aI31
aI33
aI34
aI35
aI37
aI39
aI40
aI45
aI47
aI48
aI50
aI52
aI54
aI57
aI59
aI61
aI63
aI65
aI68
aI69
aI70
aI71
aI72
aI73
aI74
aI75
aI76
aI77
aI80
aI83
aI85
aI87
aI90
aI91
aI93
aI94
aI95
aI96
aI109
aI110
aI115
aI116
aI117
aI118
aI119
aI120
aI123
aI124
aI127
aI134
aI135
aI136
aI140
aI147
aI148
aI149
aI150
aI151
aI153
aI154
aI156
aI157
aI158
aI159
aI161
aI162
aI163
aI171
aI174
aI175
aI177
aI178
aI179
aI181
aI185
aI186
aI187
aI189
aI190
aI191
aI193
aI195
aI196
aI198
aI199
aI201
aI204
aI205
aI207
aI208
aI210
aI211
aI214
aI215
aI218
aI220
aI221
aI224
aI225
aI227
aI228
aI231
aI232
aI234
aI235
aI236
aI237
aI243
aI244
aI247
aI249
aI250
aI258
aI259
aI267
aI268
aI270
aI272
aI273
aI275
aI277
aI278
aI280
aI283
aI284
aI285
aI286
aI287
aI293
aI294
aI295
aI296
aI303
aI304
aI305
aI306
aI307
aI309
aI311
aI509
aI517
aI537
aI538
aI541
aI542
aI543
aI547
aI596
aI605
aI616
aI638
aI661
aI677
aI688
aI691
aI692
aI693
aI694
aI695
aI696
aI699
aI700
aI701
aI702
aI703
aI705
aI706
aI708
aI709
aI710
aI716
aI717
aI718
aI722
aI723
aI724
aI726
aI806
aI834
aI872
aI874
aI875
aI876
aI877
aI878
aI879
aI881
aI882
aI886
aI887
aI888
aI889
aI891
aI894
aI897
aI900
aI904
aI942
aI944
aI945
aI946
aI947
aI948
aI949
aI951
aI952
aI953
aI956
aI957
aI960
aI961
aI975
aI981
aI982
aI983
aI984
aI985
aI987
aI988
aI989
aI990
aI991
aI993
aI995
aI1008
aI1009
aI1011
aI1012
aI1013
aI1014
aI1047
aI1048
aI1049
aI1050
aI1051
aI1053
aI1054
aI1056
aI1058
aI1059
aI1061
aI1063
aI1075
aI1079
aI1085
aI1105
aI1114
aI1122
aI1123
aI1124
aI1125
aI1126
aI1129
aI1143
aI1151
aI1158
aI1164
aI1167
aI1176
aI1177
aI1178
aI1180
aI1183
aI1185
aI1187
aI1188
aI1189
aI1190
aI1191
aI1192
aI1193
aI1194
aI1195
aI1196
aI1198
aI1204
aI1211
aI1212
aI1215
aI1216
aI1230
aI1240
aI1241
aI1242
aI1246
aI1252
aI1253
aI1255
aI1256
aI1257
aI1258
aI1260
aI1261
aI1263
aI1272
aI1289
aI1296
aI1298
aI1412
aI1413
aI1417
aI1418
aI1421
aI1422
aI1423
aI1424
aI1425
aI1426
aI1427
aI1428
aI1429
aI1430
aI1431
aI1454
aI1455
aI1456
aI1458
aI1459
aI1462
aI1463
aI1482
aI1491
aI1493
aI1496
aI1497
aI1498
aI1499
aI1505
aI1506
aI1507
aI1508
aI1509
aI1533
aI1535
asS'/Users/tobias/projects/appengine/demo/eggs/nose-0.11.1-py2.5.egg/nose/proxy.py'
p60
(lp61
I142
aI143
aI144
aI147
aI148
aI149
aI155
aI156
aI157
aI30
aI43
aI45
aI46
aI47
aI57
aI58
aI59
aI60
aI62
aI64
aI78
aI80
aI81
aI82
aI83
aI92
aI93
aI94
aI100
aI101
aI102
aI106
aI107
aI108
aI112
aI113
aI114
aI115
aI118
aI119
aI120
aI121
aI122
aI123
asS'/Applications/Utilities/GoogleAppEngineLauncher.app/Contents/Resources/GoogleAppEngine-default.bundle/Contents/Resources/google_appengine/google/appengine/api/datastore_file_stub.py'
p62
(lp63
I772
aI547
aI551
aI632
aI554
aI556
aI560
aI561
aI563
aI606
aI569
aI66
aI67
aI599
aI600
aI601
aI602
aI603
aI604
aI94
aI96
aI98
aI613
aI614
aI615
aI616
aI617
aI620
aI622
aI624
aI627
aI628
aI629
aI118
aI631
aI120
aI633
aI636
aI129
aI130
aI132
aI133
aI134
aI136
aI688
aI689
aI690
aI692
aI117
aI119
aI205
aI208
aI209
aI210
aI211
aI212
aI214
aI216
aI218
aI220
aI222
aI224
aI225
aI227
aI553
aI230
aI721
aI232
aI233
aI234
aI235
aI236
aI237
aI238
aI751
aI240
aI754
aI756
aI757
aI758
aI759
aI760
aI762
aI763
aI765
aI766
aI767
aI770
aI260
aI773
aI778
aI271
aI288
aI289
aI297
aI298
aI299
aI300
aI301
aI303
aI330
aI331
aI399
aI229
aI352
aI353
aI231
aI744
aI376
aI377
aI378
aI379
aI380
aI746
aI382
aI747
aI388
aI389
aI390
aI392
aI748
aI397
aI749
aI400
aI401
aI404
aI750
aI411
aI413
aI752
aI418
aI421
aI423
aI424
aI425
aI427
aI429
aI430
aI431
aI432
aI440
aI446
aI447
aI448
aI449
aI451
aI452
aI461
aI462
aI463
aI465
aI466
aI468
aI469
aI470
aI471
aI472
aI473
aI475
aI477
aI478
aI480
aI481
aI482
aI483
aI484
aI485
aI487
aI488
aI489
aI490
aI496
aI498
aI499
aI500
aI502
aI504
aI505
aI507
asS'/Users/tobias/projects/appengine/demo/eggs/zope.interface-3.5.1-py2.5-macosx-10.3-i386.egg/zope/interface/exceptions.py'
p64
(lp65
I64
aI51
aI35
aI69
aI49
aI41
aI23
aI60
aI47
aI17
aI19
aI21
aI55
aI24
aI25
aI33
aI28
aI62
aI37
asS'/private/var/folders/tY/tYk-BLGGGju0p1L+Vn3SHU+++TM/-Tmp-/tmpbSvrMy/zc.buildout-1.2.1-py2.5.egg/zc/__init__.py'
p66
(lp67
I1
aI2
asS'/private/var/folders/tY/tYk-BLGGGju0p1L+Vn3SHU+++TM/-Tmp-/tmp1FPDfZ/zc.buildout-1.2.1-py2.5.egg/zc/buildout/buildout.py'
p68
(lp69
I17
aI19
aI20
aI21
aI22
aI23
aI24
aI25
aI26
aI27
aI28
aI29
aI30
aI31
aI33
aI34
aI35
aI37
aI39
aI40
aI45
aI47
aI48
aI50
aI52
aI54
aI57
aI59
aI61
aI63
aI65
aI68
aI69
aI70
aI71
aI72
aI73
aI74
aI75
aI76
aI77
aI80
aI83
aI85
aI87
aI90
aI91
aI93
aI94
aI95
aI96
aI109
aI110
aI115
aI116
aI117
aI118
aI119
aI120
aI123
aI124
aI127
aI134
aI135
aI136
aI140
aI147
aI148
aI149
aI150
aI151
aI153
aI154
aI156
aI157
aI158
aI159
aI161
aI162
aI163
aI171
aI174
aI175
aI177
aI178
aI179
aI181
aI185
aI186
aI187
aI189
aI190
aI191
aI193
aI195
aI196
aI198
aI199
aI201
aI204
aI205
aI207
aI208
aI210
aI211
aI214
aI215
aI218
aI220
aI221
aI224
aI225
aI227
aI228
aI231
aI232
aI234
aI235
aI236
aI237
aI243
aI244
aI247
aI249
aI250
aI258
aI259
aI267
aI268
aI270
aI272
aI273
aI275
aI277
aI278
aI280
aI283
aI284
aI285
aI286
aI287
aI293
aI294
aI295
aI296
aI303
aI304
aI305
aI306
aI307
aI309
aI311
aI509
aI517
aI537
aI538
aI541
aI542
aI543
aI547
aI596
aI605
aI616
aI638
aI661
aI677
aI688
aI691
aI692
aI693
aI694
aI695
aI696
aI699
aI700
aI701
aI702
aI703
aI705
aI706
aI708
aI709
aI710
aI716
aI717
aI718
aI722
aI723
aI724
aI726
aI806
aI834
aI872
aI874
aI875
aI876
aI877
aI878
aI879
aI881
aI882
aI886
aI887
aI888
aI889
aI891
aI894
aI897
aI900
aI904
aI942
aI944
aI945
aI946
aI947
aI948
aI949
aI951
aI952
aI953
aI956
aI957
aI960
aI961
aI975
aI981
aI982
aI983
aI984
aI985
aI987
aI988
aI989
aI990
aI991
aI993
aI995
aI1008
aI1009
aI1011
aI1012
aI1013
aI1014
aI1047
aI1048
aI1049
aI1050
aI1051
aI1053
aI1054
aI1056
aI1058
aI1059
aI1061
aI1063
aI1075
aI1079
aI1085
aI1105
aI1114
aI1122
aI1123
aI1124
aI1125
aI1126
aI1129
aI1143
aI1151
aI1158
aI1164
aI1167
aI1176
aI1177
aI1178
aI1180
aI1183
aI1185
aI1187
aI1188
aI1189
aI1190
aI1191
aI1192
aI1193
aI1194
aI1195
aI1196
aI1198
aI1204
aI1211
aI1212
aI1215
aI1216
aI1230
aI1240
aI1241
aI1242
aI1246
aI1252
aI1253
aI1255
aI1256
aI1257
aI1258
aI1260
aI1261
aI1263
aI1272
aI1289
aI1296
aI1298
aI1412
aI1413
aI1417
aI1418
aI1421
aI1422
aI1423
aI1424
aI1425
aI1426
aI1427
aI1428
aI1429
aI1430
aI1431
aI1454
aI1455
aI1456
aI1458
aI1459
aI1462
aI1463
aI1482
aI1491
aI1493
aI1496
aI1497
aI1498
aI1499
aI1505
aI1506
aI1507
aI1508
aI1509
aI1533
aI1535
asS'/Users/tobias/projects/appengine/demo/eggs/zope.tal-3.5.1-py2.5.egg/zope/tal/__init__.py'
p70
(lp71
I1
asS'/private/var/folders/tY/tYk-BLGGGju0p1L+Vn3SHU+++TM/-Tmp-/tmprYL_to/zc.buildout-1.2.1-py2.5.egg/zc/buildout/__init__.py'
p72
(lp73
I17
aI19
aI21
aI23
asS'/Users/tobias/projects/appengine/demo/eggs/nose-0.11.1-py2.5.egg/nose/importer.py'
p74
(lp75
I130
aI131
aI133
aI134
aI135
aI136
aI137
aI138
aI139
aI140
aI141
aI142
aI143
aI144
aI24
aI146
aI147
aI148
aI22
aI152
aI153
aI154
aI103
aI32
aI33
aI34
aI36
aI37
aI39
aI45
aI46
aI51
aI54
aI55
aI57
aI58
aI59
aI60
aI62
aI63
aI64
aI66
aI67
aI68
aI69
aI70
aI71
aI72
aI73
aI77
aI78
aI81
aI86
aI88
aI89
aI90
aI91
aI92
aI93
aI94
aI95
aI96
aI99
aI100
aI101
aI102
aI145
aI104
aI105
aI106
aI107
aI108
aI113
aI114
aI115
aI116
aI117
aI118
aI119
asS'/Applications/Utilities/GoogleAppEngineLauncher.app/Contents/Resources/GoogleAppEngine-default.bundle/Contents/Resources/google_appengine/google/appengine/ext/webapp/__init__.py'
p76
(lp77
I519
aI521
aI522
aI524
aI532
aI533
aI534
aI536
aI538
aI540
aI541
aI542
aI543
aI545
aI546
aI548
aI549
aI550
aI552
aI553
aI554
aI556
aI58
aI61
aI62
aI63
aI64
aI65
aI66
aI67
aI68
aI69
aI70
aI72
aI73
aI75
aI76
aI77
aI80
aI81
aI82
aI85
aI98
aI100
aI102
aI103
aI105
aI114
aI115
aI118
aI120
aI121
aI123
aI139
aI140
aI143
aI144
aI148
aI160
aI161
aI163
aI165
aI166
aI169
aI171
aI178
aI201
aI207
aI208
aI210
aI211
aI212
aI213
aI214
aI215
aI217
aI226
aI227
aI228
aI230
aI232
aI233
aI235
aI241
aI242
aI243
aI244
aI245
aI246
aI250
aI251
aI252
aI253
aI255
aI261
aI263
aI264
aI266
aI267
aI268
aI269
aI270
aI271
aI272
aI273
aI274
aI275
aI276
aI277
aI278
aI279
aI280
aI281
aI282
aI283
aI284
aI285
aI286
aI287
aI288
aI289
aI290
aI291
aI292
aI293
aI294
aI295
aI296
aI297
aI298
aI299
aI300
aI301
aI302
aI303
aI304
aI305
aI306
aI307
aI311
aI316
aI317
aI319
aI320
aI322
aI326
aI330
aI334
aI338
aI342
aI346
aI350
aI359
aI366
aI369
aI370
aI371
aI372
aI374
aI391
aI456
aI464
aI466
aI473
aI474
aI475
aI476
aI478
aI480
aI481
aI483
aI485
aI486
aI487
aI488
aI489
aI490
aI491
aI492
aI493
aI495
aI497
aI498
aI499
aI500
aI501
aI502
aI503
asS'/private/var/folders/tY/tYk-BLGGGju0p1L+Vn3SHU+++TM/-Tmp-/tmpFS31q8/zc.buildout-1.2.1-py2.5.egg/zc/buildout/buildout.py'
p78
(lp79
I17
aI19
aI20
aI21
aI22
aI23
aI24
aI25
aI26
aI27
aI28
aI29
aI30
aI31
aI33
aI34
aI35
aI37
aI39
aI40
aI45
aI47
aI48
aI50
aI52
aI54
aI57
aI59
aI61
aI63
aI65
aI68
aI69
aI70
aI71
aI72
aI73
aI74
aI75
aI76
aI77
aI80
aI83
aI85
aI87
aI90
aI91
aI93
aI94
aI95
aI96
aI109
aI110
aI115
aI116
aI117
aI118
aI119
aI120
aI123
aI124
aI127
aI134
aI135
aI136
aI140
aI147
aI148
aI149
aI150
aI151
aI153
aI154
aI156
aI157
aI158
aI159
aI161
aI162
aI163
aI171
aI174
aI175
aI177
aI178
aI179
aI181
aI185
aI186
aI187
aI189
aI190
aI191
aI193
aI195
aI196
aI198
aI199
aI201
aI204
aI205
aI207
aI208
aI210
aI211
aI214
aI215
aI218
aI220
aI221
aI224
aI225
aI227
aI228
aI231
aI232
aI234
aI235
aI236
aI237
aI243
aI244
aI247
aI249
aI250
aI258
aI259
aI267
aI268
aI270
aI272
aI273
aI275
aI277
aI278
aI280
aI283
aI284
aI285
aI286
aI287
aI293
aI294
aI295
aI296
aI303
aI304
aI305
aI306
aI307
aI309
aI311
aI509
aI517
aI537
aI538
aI541
aI542
aI543
aI547
aI596
aI605
aI616
aI638
aI661
aI677
aI688
aI691
aI692
aI693
aI694
aI695
aI696
aI699
aI700
aI701
aI702
aI703
aI705
aI706
aI708
aI709
aI710
aI716
aI717
aI718
aI722
aI723
aI724
aI726
aI806
aI834
aI872
aI874
aI875
aI876
aI877
aI878
aI879
aI881
aI882
aI886
aI887
aI888
aI889
aI891
aI894
aI897
aI900
aI904
aI942
aI944
aI945
aI946
aI947
aI948
aI949
aI951
aI952
aI953
aI956
aI957
aI960
aI961
aI975
aI981
aI982
aI983
aI984
aI985
aI987
aI988
aI989
aI990
aI991
aI993
aI995
aI1008
aI1009
aI1011
aI1012
aI1013
aI1014
aI1047
aI1048
aI1049
aI1050
aI1051
aI1053
aI1054
aI1056
aI1058
aI1059
aI1061
aI1063
aI1075
aI1079
aI1085
aI1105
aI1114
aI1122
aI1123
aI1124
aI1125
aI1126
aI1129
aI1143
aI1151
aI1158
aI1164
aI1167
aI1176
aI1177
aI1178
aI1180
aI1183
aI1185
aI1187
aI1188
aI1189
aI1190
aI1191
aI1192
aI1193
aI1194
aI1195
aI1196
aI1198
aI1204
aI1211
aI1212
aI1215
aI1216
aI1230
aI1240
aI1241
aI1242
aI1246
aI1252
aI1253
aI1255
aI1256
aI1257
aI1258
aI1260
aI1261
aI1263
aI1272
aI1289
aI1296
aI1298
aI1412
aI1413
aI1417
aI1418
aI1421
aI1422
aI1423
aI1424
aI1425
aI1426
aI1427
aI1428
aI1429
aI1430
aI1431
aI1454
aI1455
aI1456
aI1458
aI1459
aI1462
aI1463
aI1482
aI1491
aI1493
aI1496
aI1497
aI1498
aI1499
aI1505
aI1506
aI1507
aI1508
aI1509
aI1533
aI1535
asS'/Users/tobias/projects/appengine/bridal/trunk/demo/install_lib.py'
p80
(lp81
I1
aI2
aI4
aI5
aI7
aI71
aI44
aI19
aI26
asS'/Users/tobias/projects/appengine/bridal/trunk/demo/eggs/zope.pagetemplate-3.5.0-py2.5.egg/zope/pagetemplate/pagetemplate.py'
p82
(lp83
I128
aI192
aI132
aI134
aI140
aI141
aI145
aI147
aI20
aI21
aI22
aI23
aI24
aI25
aI27
aI29
aI30
aI33
aI34
aI36
aI167
aI169
aI171
aI172
aI175
aI189
aI180
aI181
aI182
aI183
aI184
aI59
aI61
aI190
aI191
aI64
aI65
aI66
aI67
aI68
aI69
aI19
aI71
aI200
aI201
aI75
aI204
aI77
aI207
aI84
aI199
aI93
aI94
aI96
aI97
aI99
aI100
aI102
aI103
aI105
aI106
aI107
aI108
aI111
aI112
aI113
aI114
aI115
aI116
aI118
aI63
aI196
asS'/Users/tobias/projects/appengine/demo/eggs/nose-0.11.1-py2.5.egg/nose/plugins/doctests.py'
p84
(lp85
I282
aI283
aI284
aI285
aI286
aI287
aI294
aI297
aI298
aI302
aI312
aI313
aI315
aI322
aI196
aI201
aI202
aI203
aI204
aI205
aI206
aI212
aI213
aI214
aI215
aI216
aI219
aI220
aI221
aI222
aI226
asS'/Users/tobias/projects/appengine/demo/eggs/nose-0.11.1-py2.5.egg/nose/loader.py'
p86
(lp87
I512
aI522
aI523
aI525
aI528
aI75
aI77
aI78
aI79
aI80
aI81
aI82
aI85
aI86
aI87
aI88
aI89
aI90
aI91
aI92
aI124
aI125
aI126
aI127
aI128
aI130
aI131
aI132
aI135
aI136
aI137
aI138
aI139
aI140
aI141
aI142
aI144
aI145
aI148
aI150
aI151
aI152
aI153
aI154
aI155
aI156
aI157
aI160
aI161
aI164
aI165
aI168
aI169
aI170
aI171
aI174
aI175
aI183
aI184
aI185
aI286
aI287
aI288
aI289
aI293
aI294
aI295
aI297
aI300
aI301
aI302
aI303
aI304
aI305
aI310
aI311
aI312
aI313
aI314
aI315
aI316
aI318
aI321
aI331
aI333
aI336
aI337
aI340
aI341
aI365
aI366
aI367
aI370
aI371
aI377
aI378
aI379
aI381
aI382
aI383
aI384
aI385
aI386
aI387
aI388
aI389
aI392
aI393
aI394
aI395
aI396
aI397
aI408
aI415
aI416
aI417
aI420
aI421
aI422
aI434
aI435
aI436
aI437
aI442
aI484
aI485
aI486
aI491
aI494
aI495
aI503
aI505
asS'/Users/tobias/projects/appengine/bridal/trunk/demo/eggs/nose-0.11.1-py2.5.egg/nose/result.py'
p88
(lp89
I137
aI138
aI161
aI34
aI35
aI36
aI37
aI39
aI40
aI47
aI48
aI49
aI50
aI54
aI55
aI70
aI71
aI72
aI73
aI74
aI162
aI81
aI82
aI83
aI84
aI87
aI88
asS'/Users/tobias/projects/appengine/bridal/trunk/demo/pkg_resources.py'
p90
(lp91
I2058
aI2059
aI2060
aI2061
aI2062
aI2067
aI2068
aI2069
aI2070
aI2071
aI2077
aI2078
aI2079
aI2080
aI2081
aI2082
aI2083
aI2095
aI2096
aI2097
aI2098
aI2099
aI2100
aI2101
aI2102
aI2103
aI2108
aI2109
aI2110
aI2111
aI2118
aI2121
aI2122
aI2123
aI2127
aI2128
aI2129
aI2130
aI2131
aI2159
aI2160
aI2161
aI2165
aI2166
aI2167
aI2184
aI2185
aI2186
aI2187
aI2188
aI2190
aI2191
aI2196
aI2219
aI2220
aI2223
aI2224
aI2226
aI2227
aI2228
aI2230
aI2231
aI2232
aI2233
aI2234
aI2236
aI2237
aI2238
aI2240
aI2241
aI2244
aI2245
aI2246
aI2247
aI2248
aI2253
aI376
aI2258
aI2261
aI2262
aI2263
aI2264
aI217
aI218
aI2267
aI378
aI222
aI2278
aI2279
aI2428
aI2283
aI241
aI242
aI248
aI251
aI384
aI269
aI270
aI271
aI273
aI281
aI2346
aI2348
aI2350
aI2352
aI2376
aI2377
aI2378
aI2380
aI2381
aI2382
aI2384
aI2385
aI2386
aI2388
aI2446
aI2390
aI2391
aI2392
aI2395
aI2396
aI2397
aI2401
aI2402
aI2403
aI375
aI2424
aI2425
aI2426
aI2427
aI380
aI2429
aI383
aI2432
aI2434
aI397
aI398
aI2447
aI400
aI2469
aI2451
aI2452
aI2458
aI2459
aI2463
aI421
aI2470
aI2471
aI2472
aI425
aI2491
aI2492
aI2493
aI2494
aI2498
aI2499
aI2500
aI458
aI459
aI460
aI461
aI462
aI463
aI2517
aI2518
aI2519
aI2520
aI2521
aI2522
aI2524
aI2525
aI479
aI480
aI481
aI482
aI483
aI484
aI422
aI486
aI487
aI488
aI489
aI491
aI505
aI506
aI507
aI508
aI510
aI511
aI512
aI515
aI516
aI518
aI519
aI520
aI521
aI522
aI523
aI525
aI526
aI529
aI530
aI532
aI2582
aI626
aI628
aI629
aI631
aI644
aI645
aI677
aI678
aI679
aI680
aI681
aI690
aI691
aI692
aI706
aI709
aI710
aI711
aI716
aI717
aI718
aI719
aI720
aI723
aI724
aI725
aI727
aI731
aI732
aI733
aI734
aI735
aI752
aI753
aI755
aI756
aI757
aI476
aI477
aI2529
aI2532
aI1072
aI1081
aI1082
aI377
aI1132
aI1135
aI1137
aI1140
aI1150
aI1191
aI1192
aI1215
aI1216
aI1217
aI1218
aI1219
aI1220
aI1221
aI1222
aI1235
aI1247
aI1248
aI1249
aI1251
aI213
aI214
aI1286
aI219
aI2431
aI1379
aI1380
aI1381
aI1382
aI1383
aI1384
aI1385
aI1386
aI1387
aI1388
aI1389
aI1391
aI1392
aI1393
aI1396
aI1397
aI1403
aI1449
aI1452
aI1455
aI1456
aI1460
aI1498
aI1499
aI1508
aI1509
aI1510
aI1511
aI1514
aI1515
aI1285
aI1614
aI1615
aI1616
aI1619
aI1620
aI1621
aI1622
aI1623
aI1624
aI1625
aI1642
aI1647
aI1649
aI1650
aI1652
aI1653
aI1654
aI1659
aI1660
aI1661
aI1662
aI1663
aI1667
aI1668
aI1669
aI1671
aI1672
aI1673
aI1674
aI1704
aI1705
aI1707
aI1708
aI1709
aI1710
aI1711
aI1712
aI1713
aI1716
aI1717
aI1718
aI1719
aI1720
aI1721
aI1726
aI1727
aI1728
aI1729
aI1731
aI1732
aI1743
aI1744
aI1746
aI399
aI1749
aI1752
aI1756
aI1757
aI1758
aI1759
aI1760
aI1762
aI1767
aI1768
aI1769
aI1774
aI1788
aI1791
aI1792
aI1793
aI1794
aI1795
aI1798
aI1799
aI1800
aI1807
aI1808
aI1809
aI1810
aI1811
aI1813
aI1814
aI1815
aI1835
aI1836
aI1837
aI1838
aI1839
aI1840
aI2448
aI1844
aI1877
aI1878
aI1879
aI1880
aI1883
aI1885
aI1886
aI1892
aI1894
aI1895
aI1896
aI1897
aI1898
aI1940
aI1941
aI1942
aI1943
aI1948
aI1949
aI1950
aI1952
aI1959
aI1973
aI1975
aI1976
aI1977
aI1978
aI1980
aI1981
aI1988
aI1991
aI1992
aI1993
aI1994
aI1998
aI1999
aI2001
aI2002
aI2017
aI2018
aI2019
aI2020
aI2021
aI2022
aI2023
aI2024
aI2028
aI2029
aI2030
aI2031
aI2032
aI2033
aI2034
aI2036
aI2037
aI2038
aI2044
aI2045
aI2046
aI2389
asS'/Applications/Utilities/GoogleAppEngineLauncher.app/Contents/Resources/GoogleAppEngine-default.bundle/Contents/Resources/google_appengine/lib/yaml/lib/yaml/resolver.py'
p92
(lp93
I22
aI23
aI141
aI142
aI145
aI146
aI147
aI148
aI149
aI150
aI151
aI157
aI158
asS'/private/var/folders/tY/tYk-BLGGGju0p1L+Vn3SHU+++TM/-Tmp-/tmpuQQYJ1/zc.buildout-1.2.1-py2.5.egg/zc/buildout/rmtree.py'
p94
(lp95
I65
aI16
aI17
aI18
aI20
aI62
asS'/Users/tobias/projects/appengine/demo/eggs/zope.interface-3.5.1-py2.5-macosx-10.3-i386.egg/zope/interface/adapter.py'
p96
(lp97
I86
aI17
aI530
aI19
aI20
aI22
aI23
aI28
aI32
aI545
aI34
aI547
aI549
aI551
aI42
aI615
aI556
aI46
aI605
aI561
aI50
aI565
aI566
aI55
aI570
aI607
aI574
aI576
aI577
aI579
aI68
aI70
aI583
aI584
aI73
aI586
aI75
aI588
aI590
aI591
aI80
aI81
aI594
aI99
aI596
aI597
aI598
aI88
aI89
aI602
aI603
aI604
aI93
aI94
aI95
aI96
aI97
aI98
aI611
aI100
aI613
aI614
aI103
aI616
aI105
aI106
aI107
aI620
aI109
aI112
aI104
aI114
aI115
aI116
aI117
aI119
aI632
aI121
aI140
aI174
aI457
aI544
aI201
aI240
aI246
aI247
aI249
aI554
aI254
aI259
aI272
aI558
aI606
aI291
aI302
aI305
aI319
aI79
aI567
aI334
aI608
aI348
aI350
aI352
aI357
aI362
aI366
aI370
aI374
aI609
aI377
aI378
aI382
aI384
aI386
aI387
aI388
aI389
aI390
aI392
aI393
aI394
aI398
aI423
aI424
aI425
aI71
aI428
aI429
aI430
aI431
aI72
aI436
aI437
aI440
aI447
aI448
aI449
aI450
aI451
aI452
aI453
aI455
aI456
aI76
aI458
aI459
aI460
aI463
aI464
aI612
aI467
aI468
aI469
aI470
aI471
aI473
aI475
aI477
aI478
aI479
aI84
aI482
aI483
aI486
aI488
aI82
aI505
aI508
aI102
aI85
asS'/private/var/folders/tY/tYk-BLGGGju0p1L+Vn3SHU+++TM/-Tmp-/tmpWPFu1Z/zc.buildout-1.2.1-py2.5.egg/zc/buildout/easy_install.py'
p98
(lp99
I1026
aI1028
aI1030
aI1031
aI1032
aI1035
aI1036
aI1037
aI1038
aI1039
aI1040
aI1041
aI1042
aI1044
aI21
aI1046
aI23
aI24
aI25
aI26
aI27
aI28
aI29
aI30
aI31
aI32
aI33
aI34
aI35
aI36
aI37
aI38
aI39
aI1064
aI1065
aI42
aI43
aI45
aI46
aI47
aI1073
aI50
aI52
aI54
aI55
aI57
aI1085
aI63
aI64
aI69
aI70
aI71
aI74
aI76
aI78
aI79
aI594
aI1120
aI100
aI102
aI615
aI106
aI107
aI113
aI114
aI628
aI1147
aI132
aI134
aI1160
aI1162
aI140
aI142
aI143
aI1169
aI146
aI148
aI149
aI150
aI151
aI152
aI153
aI154
aI1179
aI1181
aI158
aI159
aI160
aI161
aI1186
aI163
aI164
aI165
aI166
aI684
aI1197
aI1205
aI1206
aI1055
aI1212
aI202
aI750
aI756
aI757
aI758
aI41
aI760
aI761
aI762
aI764
aI770
aI771
aI772
aI773
aI774
aI776
aI777
aI778
aI779
aI780
aI782
aI783
aI784
aI785
aI786
aI788
aI1070
aI795
aI796
aI797
aI798
aI291
aI806
aI807
aI808
aI299
aI815
aI1067
aI822
aI838
aI839
aI1164
aI399
aI1088
aI906
aI910
aI911
aI912
aI913
aI914
aI915
aI918
aI919
aI920
aI922
aI924
aI928
aI931
aI932
aI933
aI934
aI935
aI936
aI937
aI938
aI939
aI940
aI157
aI945
aI946
aI951
aI953
aI954
aI956
aI957
aI958
aI961
aI966
aI455
aI968
aI969
aI759
aI162
aI979
aI980
aI981
aI984
aI473
aI996
aI1190
aI1009
asS'/private/var/folders/tY/tYk-BLGGGju0p1L+Vn3SHU+++TM/-Tmp-/tmpqPMLS9/zc.buildout-1.2.1-py2.5.egg/zc/buildout/buildout.py'
p100
(lp101
I17
aI19
aI20
aI21
aI22
aI23
aI24
aI25
aI26
aI27
aI28
aI29
aI30
aI31
aI33
aI34
aI35
aI37
aI39
aI40
aI45
aI47
aI48
aI50
aI52
aI54
aI57
aI59
aI61
aI63
aI65
aI68
aI69
aI70
aI71
aI72
aI73
aI74
aI75
aI76
aI77
aI80
aI83
aI85
aI87
aI90
aI91
aI93
aI94
aI95
aI96
aI109
aI110
aI115
aI116
aI117
aI118
aI119
aI120
aI123
aI124
aI127
aI134
aI135
aI136
aI140
aI147
aI148
aI149
aI150
aI151
aI153
aI154
aI156
aI157
aI158
aI159
aI161
aI162
aI163
aI171
aI174
aI175
aI177
aI178
aI179
aI181
aI185
aI186
aI187
aI189
aI190
aI191
aI193
aI195
aI196
aI198
aI199
aI201
aI204
aI205
aI207
aI208
aI210
aI211
aI214
aI215
aI218
aI220
aI221
aI224
aI225
aI227
aI228
aI231
aI232
aI234
aI235
aI236
aI237
aI243
aI244
aI247
aI249
aI250
aI258
aI259
aI267
aI268
aI270
aI272
aI273
aI275
aI277
aI278
aI280
aI283
aI284
aI285
aI286
aI287
aI293
aI294
aI295
aI296
aI303
aI304
aI305
aI306
aI307
aI309
aI311
aI509
aI517
aI537
aI538
aI541
aI542
aI543
aI547
aI596
aI605
aI616
aI638
aI661
aI677
aI688
aI691
aI692
aI693
aI694
aI695
aI696
aI699
aI700
aI701
aI702
aI703
aI705
aI706
aI708
aI709
aI710
aI716
aI717
aI718
aI722
aI723
aI724
aI726
aI806
aI834
aI872
aI874
aI875
aI876
aI877
aI878
aI879
aI881
aI882
aI886
aI887
aI888
aI889
aI891
aI894
aI897
aI900
aI904
aI942
aI944
aI945
aI946
aI947
aI948
aI949
aI951
aI952
aI953
aI956
aI957
aI960
aI961
aI975
aI981
aI982
aI983
aI984
aI985
aI987
aI988
aI989
aI990
aI991
aI993
aI995
aI1008
aI1009
aI1011
aI1012
aI1013
aI1014
aI1047
aI1048
aI1049
aI1050
aI1051
aI1053
aI1054
aI1056
aI1058
aI1059
aI1061
aI1063
aI1075
aI1079
aI1085
aI1105
aI1114
aI1122
aI1123
aI1124
aI1125
aI1126
aI1129
aI1143
aI1151
aI1158
aI1164
aI1167
aI1176
aI1177
aI1178
aI1180
aI1183
aI1185
aI1187
aI1188
aI1189
aI1190
aI1191
aI1192
aI1193
aI1194
aI1195
aI1196
aI1198
aI1204
aI1211
aI1212
aI1215
aI1216
aI1230
aI1240
aI1241
aI1242
aI1246
aI1252
aI1253
aI1255
aI1256
aI1257
aI1258
aI1260
aI1261
aI1263
aI1272
aI1289
aI1296
aI1298
aI1412
aI1413
aI1417
aI1418
aI1421
aI1422
aI1423
aI1424
aI1425
aI1426
aI1427
aI1428
aI1429
aI1430
aI1431
aI1454
aI1455
aI1456
aI1458
aI1459
aI1462
aI1463
aI1482
aI1491
aI1493
aI1496
aI1497
aI1498
aI1499
aI1505
aI1506
aI1507
aI1508
aI1509
aI1533
aI1535
asS'/Users/tobias/projects/appengine/demo/nosegae.py'
p102
(lp103
I128
aI131
aI132
aI133
aI134
aI153
aI154
aI155
aI157
aI158
aI160
aI162
aI163
aI91
aI206
aI207
aI208
aI209
aI210
aI211
aI212
aI213
aI216
aI217
aI218
aI219
aI92
aI93
aI94
aI95
aI96
aI97
aI98
aI99
aI100
aI101
aI102
aI103
aI107
aI108
aI112
aI116
aI117
aI118
aI119
aI120
aI121
aI122
aI123
aI125
aI126
aI127
asS'/Applications/Utilities/GoogleAppEngineLauncher.app/Contents/Resources/GoogleAppEngine-default.bundle/Contents/Resources/google_appengine/lib/webob/webob/headerdict.py'
p104
(lp105
I32
aI33
aI34
aI67
aI36
aI69
aI70
aI71
aI72
aI73
aI74
aI66
aI19
aI22
aI23
aI24
aI25
aI26
aI68
aI30
aI31
asS'/Applications/Utilities/GoogleAppEngineLauncher.app/Contents/Resources/GoogleAppEngine-default.bundle/Contents/Resources/google_appengine/google/appengine/api/mail_stub.py'
p106
(lp107
I69
aI70
aI71
aI72
aI73
aI74
aI75
asS'/Users/tobias/projects/appengine/bridal/trunk/demo/src/demo/app.py'
p108
(lp109
I130
aI150
aI134
aI135
aI136
aI138
aI151
aI141
aI15
aI17
aI18
aI20
aI21
aI22
aI23
aI24
aI25
aI26
aI27
aI28
aI29
aI30
aI159
aI33
aI155
aI37
aI38
aI40
aI156
aI42
aI43
aI44
aI47
aI51
aI53
aI55
aI56
aI57
aI59
aI60
aI61
aI62
aI65
aI66
aI152
aI69
aI70
aI72
aI74
aI75
aI76
aI78
aI81
aI85
aI87
aI88
aI89
aI90
aI92
aI94
aI96
aI97
aI99
aI166
aI102
aI103
aI105
aI110
aI157
aI113
aI115
aI117
aI120
aI122
aI123
aI125
aI126
aI127
asS'/Users/tobias/projects/appengine/demo/package_index.py'
p110
(lp111
I1
aI642
aI3
aI4
aI5
aI6
aI7
aI648
aI10
aI651
aI12
aI13
aI654
aI15
aI144
aI145
aI19
aI20
aI149
aI534
aI23
aI152
aI27
aI412
aI150
aI288
aI667
aI165
aI678
aI42
aI302
aI48
aI659
aI739
aI698
aI571
aI60
aI317
aI575
aI2
aI535
aI329
aI588
aI206
aI83
aI340
aI24
aI473
aI91
aI222
aI16
aI355
aI294
aI742
aI232
aI361
aI620
aI493
aI239
aI616
aI370
aI627
aI247
aI127
aI124
aI661
asS'/private/var/folders/tY/tYk-BLGGGju0p1L+Vn3SHU+++TM/-Tmp-/tmpqPMLS9/zc.buildout-1.2.1-py2.5.egg/zc/buildout/rmtree.py'
p112
(lp113
I65
aI16
aI17
aI18
aI20
aI62
asS'/Applications/Utilities/GoogleAppEngineLauncher.app/Contents/Resources/GoogleAppEngine-default.bundle/Contents/Resources/google_appengine/lib/yaml/lib/yaml/events.py'
p114
(lp115
I6
aI7
aI24
aI25
aI26
aI27
aI28
aI29
aI38
aI39
aI40
aI48
aI49
aI50
aI51
aI52
aI57
aI58
aI59
aI67
aI68
aI69
aI70
aI71
aI72
aI73
asS'/Users/tobias/projects/appengine/bridal/trunk/demo/eggs/zope.event-3.4.1-py2.5.egg/zope/event/__init__.py'
p116
(lp117
I17
aI19
aI21
aI22
asS'/Users/tobias/projects/appengine/bridal/trunk/demo/eggs/nose-0.11.1-py2.5.egg/nose/case.py'
p118
(lp119
I128
aI129
aI258
aI131
aI132
aI261
aI262
aI226
aI139
aI130
aI146
aI147
aI148
aI150
aI153
aI154
aI156
aI157
aI158
aI287
aI32
aI33
aI290
aI35
aI36
aI37
aI38
aI39
aI40
aI41
aI171
aI44
aI47
aI48
aI50
aI183
aI186
aI59
aI188
aI189
aI190
aI63
aI192
aI68
aI69
aI161
aI73
aI162
aI28
aI163
aI227
aI228
aI58
aI229
aI224
aI225
aI98
aI99
aI100
aI101
aI102
aI103
aI169
aI249
aI252
aI253
aI127
asS'/private/var/folders/tY/tYk-BLGGGju0p1L+Vn3SHU+++TM/-Tmp-/tmpFS31q8/zc.buildout-1.2.1-py2.5.egg/zc/buildout/easy_install.py'
p120
(lp121
I1026
aI1028
aI1030
aI1031
aI1032
aI1035
aI1036
aI1037
aI1038
aI1039
aI1040
aI1041
aI1042
aI1044
aI21
aI1046
aI23
aI24
aI25
aI26
aI27
aI28
aI29
aI30
aI1055
aI32
aI33
aI34
aI35
aI36
aI37
aI38
aI39
aI1064
aI1065
aI42
aI43
aI45
aI1070
aI47
aI1073
aI50
aI52
aI54
aI55
aI57
aI1085
aI63
aI64
aI69
aI70
aI71
aI74
aI76
aI78
aI79
aI594
aI1120
aI100
aI102
aI615
aI106
aI107
aI113
aI114
aI628
aI1147
aI132
aI134
aI1160
aI1162
aI1164
aI142
aI143
aI1169
aI146
aI148
aI149
aI150
aI151
aI152
aI153
aI154
aI1179
aI1181
aI158
aI159
aI160
aI161
aI1186
aI163
aI164
aI165
aI1190
aI684
aI1197
aI1205
aI1206
aI31
aI1212
aI202
aI750
aI756
aI757
aI758
aI41
aI760
aI761
aI762
aI764
aI770
aI771
aI772
aI773
aI774
aI776
aI777
aI778
aI779
aI780
aI782
aI783
aI784
aI785
aI786
aI788
aI46
aI795
aI796
aI797
aI798
aI291
aI806
aI807
aI808
aI299
aI815
aI1067
aI822
aI838
aI839
aI140
aI911
aI1088
aI906
aI910
aI399
aI912
aI913
aI914
aI915
aI918
aI919
aI920
aI922
aI924
aI928
aI931
aI932
aI933
aI934
aI935
aI936
aI937
aI938
aI939
aI940
aI157
aI945
aI946
aI951
aI953
aI954
aI956
aI957
aI958
aI961
aI966
aI455
aI968
aI969
aI759
aI162
aI979
aI980
aI981
aI984
aI473
aI996
aI166
aI1009
asS'/Applications/Utilities/GoogleAppEngineLauncher.app/Contents/Resources/GoogleAppEngine-default.bundle/Contents/Resources/google_appengine/google/net/proto/ProtocolBuffer.py'
p122
(lp123
I257
aI258
aI261
aI51
aI194
aI149
aI150
aI154
aI155
aI325
aI160
aI304
aI163
aI164
aI305
aI296
aI297
aI298
aI299
aI300
aI50
aI46
aI47
aI48
aI49
aI306
aI307
aI308
aI309
aI310
aI311
aI312
aI185
aI186
aI187
aI316
aI318
aI320
aI321
aI322
aI323
aI324
aI197
aI326
aI161
aI328
aI201
aI202
aI203
aI204
aI205
aI208
aI54
aI199
aI327
aI315
aI358
aI361
aI362
aI365
aI366
aI367
aI302
aI200
asS'/Users/tobias/projects/appengine/demo/eggs/zope.component-3.7.0-py2.5.egg/zope/component/_declaration.py'
p124
(lp125
I32
aI34
aI59
aI23
aI50
aI17
aI18
aI19
aI56
aI21
aI55
aI24
aI26
aI27
aI30
aI53
asS'/Users/tobias/projects/appengine/bridal/trunk/demo/eggs/nose-0.11.1-py2.5.egg/nose/plugins/manager.py'
p126
(lp127
I132
aI133
aI134
aI135
aI136
aI137
aI149
aI150
aI151
aI152
aI103
aI160
aI161
aI167
aI71
aI72
aI106
aI76
aI77
aI78
aI79
aI82
aI88
aI89
aI90
aI91
aI92
aI93
aI94
aI229
aI97
aI101
aI230
aI231
aI232
aI233
aI234
aI107
aI108
aI111
aI104
aI117
aI120
aI121
aI122
aI123
aI124
aI125
aI126
aI127
asS'/Users/tobias/projects/appengine/demo/eggs/zope.interface-3.5.1-py2.5-macosx-10.3-i386.egg/zope/interface/__init__.py'
p128
(lp129
I64
aI65
aI66
aI67
aI68
aI69
aI70
aI73
aI76
aI78
aI80
aI52
aI53
aI55
aI58
aI59
aI61
aI63
asS'/Users/tobias/projects/appengine/bridal/trunk/demo/eggs/zope.pagetemplate-3.5.0-py2.5.egg/zope/pagetemplate/__init__.py'
p130
(lp131
I17
asS'/Users/tobias/projects/appengine/demo/eggs/zope.component-3.7.0-py2.5.egg/zope/component/registry.py'
p132
(lp133
I17
aI19
aI21
aI22
aI23
aI24
aI25
aI26
aI27
aI29
aI30
aI31
aI32
aI33
aI34
aI35
aI36
aI37
aI38
aI39
aI40
aI42
aI44
aI46
aI47
aI48
aI49
aI50
aI51
aI53
aI56
aI60
aI61
aI62
aI63
aI64
aI66
aI70
aI72
aI73
aI74
aI75
aI76
aI78
aI79
aI80
aI83
aI84
aI115
aI151
aI156
aI159
aI165
aI169
aI172
aI173
aI174
aI176
aI178
aI179
aI181
aI182
aI183
aI184
aI188
aI189
aI215
aI221
aI224
aI230
aI231
aI232
aI234
aI240
aI249
aI250
aI251
aI268
aI272
aI273
aI314
aI318
aI319
aI320
aI334
aI338
aI372
aI376
aI384
aI393
aI394
aI395
aI403
aI407
aI408
aI409
aI411
aI418
aI419
aI422
aI424
aI426
aI431
aI440
aI443
aI445
aI447
aI450
aI452
aI461
aI464
aI466
aI468
aI470
aI472
aI476
aI480
aI482
aI492
aI496
aI500
aI504
asS'/Users/tobias/projects/appengine/bridal/trunk/demo/eggs/zope.tales-3.4.0-py2.5.egg/zope/tales/tales.py'
p134
(lp135
I513
aI514
aI515
aI517
aI518
aI519
aI520
aI521
aI523
aI19
aI20
aI21
aI23
aI25
aI26
aI30
aI31
aI32
aI33
aI34
aI37
aI38
aI39
aI42
aI43
aI45
aI46
aI48
aI49
aI562
aI51
aI52
aI565
aI566
aI55
aI569
aI571
aI61
aI574
aI575
aI64
aI577
aI578
aI581
aI583
aI584
aI586
aI587
aI588
aI592
aI593
aI594
aI595
aI598
aI600
aI601
aI602
aI605
aI606
aI608
aI609
aI612
aI617
aI619
aI620
aI622
aI623
aI625
aI626
aI627
aI116
aI629
aI631
aI633
aI634
aI636
aI637
aI640
aI642
aI644
aI646
aI647
aI648
aI649
aI651
aI652
aI653
aI655
aI657
aI658
aI666
aI667
aI669
aI673
aI681
aI171
aI691
aI692
aI695
aI696
aI628
aI698
aI700
aI703
aI194
aI712
aI714
aI716
aI719
aI721
aI724
aI725
aI214
aI727
aI730
aI731
aI733
aI739
aI740
aI742
aI234
aI749
aI254
aI276
aI558
aI303
aI563
aI324
aI325
aI326
aI57
aI351
aI59
aI371
aI62
aI399
aI427
aI456
aI490
aI491
aI492
aI493
aI495
aI506
asS'/Users/tobias/projects/appengine/demo/eggs/zope.pagetemplate-3.5.0-py2.5.egg/zope/pagetemplate/__init__.py'
p136
(lp137
I17
asS'/Users/tobias/projects/appengine/demo/eggs/zope.tales-3.4.0-py2.5.egg/zope/tales/__init__.py'
p138
(lp139
I17
asS'/Users/tobias/projects/appengine/bridal/trunk/demo/eggs/zope.component-3.7.0-py2.5.egg/zope/component/hookable.py'
p140
(lp141
I32
aI33
aI15
aI16
aI17
aI19
aI20
aI22
aI23
aI25
aI29
asS'/Users/tobias/projects/appengine/bridal/trunk/demo/lint.py'
p142
(lp143
I110
aI112
aI113
aI114
aI115
aI117
aI118
aI120
aI123
aI125
aI137
aI138
aI139
aI140
aI142
aI146
aI148
aI149
aI151
aI152
aI153
aI154
aI157
aI159
aI160
aI161
aI162
aI164
aI165
aI167
aI168
aI170
aI171
aI174
aI176
aI178
aI180
aI182
aI183
aI185
aI186
aI187
aI188
aI189
aI191
aI196
aI204
aI211
aI214
aI216
aI217
aI219
aI223
aI226
aI230
aI233
aI235
aI236
aI238
aI239
aI240
aI242
aI244
aI247
aI251
aI253
aI254
aI255
aI256
aI257
aI259
aI260
aI262
aI263
aI265
aI266
aI267
aI269
aI270
aI272
aI273
aI274
aI277
aI278
aI281
aI284
aI285
aI289
aI290
aI291
aI292
aI293
aI296
aI297
aI301
aI308
aI309
aI311
aI312
aI316
aI318
aI321
aI322
aI325
aI326
aI331
aI334
aI335
aI337
aI338
aI341
aI342
aI345
aI349
aI350
aI351
aI355
aI356
aI357
aI361
aI362
aI365
aI366
aI368
aI369
aI370
aI376
aI377
aI380
aI381
aI382
aI385
aI386
aI387
aI391
aI392
aI394
aI395
aI397
aI401
aI402
aI405
aI406
aI407
aI408
aI409
aI410
aI416
aI417
aI421
aI425
aI429
aI434
aI436
asS'/private/var/folders/tY/tYk-BLGGGju0p1L+Vn3SHU+++TM/-Tmp-/tmpg40IKD/zc.buildout-1.2.1-py2.5.egg/zc/buildout/__init__.py'
p144
(lp145
I17
aI19
aI21
aI23
asS'/Applications/Utilities/GoogleAppEngineLauncher.app/Contents/Resources/GoogleAppEngine-default.bundle/Contents/Resources/google_appengine/google/appengine/api/users.py'
p146
(lp147
I129
aI148
aI149
aI82
aI83
aI212
aI85
aI87
aI89
aI90
aI91
aI92
aI95
aI98
aI99
aI100
aI109
aI110
aI114
aI118
aI125
aI213
asS'/Users/tobias/projects/appengine/demo/setopt.py'
p148
(lp149
I1
aI130
aI3
aI4
aI133
aI134
aI7
aI136
aI10
aI2
aI145
aI131
aI152
aI132
aI5
aI42
aI138
aI83
aI84
aI88
aI90
aI92
aI96
aI99
aI104
aI124
aI125
aI127
asS'/Applications/Utilities/GoogleAppEngineLauncher.app/Contents/Resources/GoogleAppEngine-default.bundle/Contents/Resources/google_appengine/google/appengine/api/urlfetch_stub.py'
p150
(lp151
I71
asS'/private/var/folders/tY/tYk-BLGGGju0p1L+Vn3SHU+++TM/-Tmp-/tmphrxJOz/zc.buildout-1.2.1-py2.5.egg/zc/buildout/easy_install.py'
p152
(lp153
I1026
aI1028
aI1030
aI1031
aI1032
aI1035
aI1036
aI1037
aI1038
aI1039
aI1040
aI1041
aI1042
aI1044
aI21
aI1046
aI23
aI24
aI25
aI26
aI27
aI28
aI29
aI30
aI1055
aI32
aI33
aI34
aI35
aI36
aI37
aI38
aI39
aI1064
aI1065
aI42
aI1067
aI45
aI1070
aI47
aI1073
aI50
aI52
aI54
aI55
aI57
aI1085
aI63
aI1088
aI69
aI70
aI71
aI74
aI76
aI78
aI79
aI594
aI1120
aI100
aI102
aI615
aI106
aI107
aI113
aI114
aI628
aI1147
aI132
aI134
aI1160
aI1162
aI1164
aI142
aI143
aI1169
aI146
aI148
aI149
aI150
aI151
aI152
aI153
aI154
aI1179
aI1181
aI158
aI159
aI160
aI161
aI1186
aI163
aI164
aI165
aI1190
aI684
aI1197
aI1205
aI1206
aI31
aI1212
aI202
aI750
aI756
aI757
aI758
aI41
aI760
aI761
aI762
aI764
aI770
aI771
aI772
aI773
aI774
aI776
aI777
aI778
aI779
aI780
aI782
aI783
aI784
aI785
aI786
aI788
aI46
aI795
aI796
aI797
aI798
aI291
aI806
aI807
aI808
aI299
aI815
aI822
aI838
aI839
aI140
aI43
aI399
aI64
aI906
aI910
aI911
aI912
aI913
aI914
aI915
aI918
aI919
aI920
aI922
aI924
aI928
aI931
aI932
aI933
aI934
aI935
aI936
aI937
aI938
aI939
aI940
aI157
aI945
aI946
aI951
aI953
aI954
aI956
aI957
aI958
aI961
aI966
aI455
aI968
aI969
aI759
aI162
aI979
aI980
aI981
aI984
aI473
aI996
aI166
aI1009
asS'/private/var/folders/tY/tYk-BLGGGju0p1L+Vn3SHU+++TM/-Tmp-/tmpUOY8un/zc.buildout-1.2.1-py2.5.egg/zc/buildout/__init__.py'
p154
(lp155
I17
aI19
aI21
aI23
asS'/Users/tobias/projects/appengine/bridal/trunk/demo/eggs/zope.tales-3.4.0-py2.5.egg/zope/tales/expressions.py'
p156
(lp157
I17
aI18
aI20
aI21
aI22
aI24
aI26
aI27
aI29
aI33
aI34
aI35
aI36
aI42
aI45
aI47
aI48
aI49
aI52
aI53
aI54
aI55
aI58
aI67
aI68
aI84
aI86
aI87
aI89
aI90
aI92
aI96
aI101
aI104
aI105
aI106
aI109
aI110
aI112
aI114
aI115
aI118
aI119
aI122
aI123
aI124
aI139
aI142
aI143
aI144
aI152
aI155
aI156
aI157
aI158
aI159
aI160
aI161
aI162
aI163
aI164
aI170
aI172
aI182
aI183
aI194
aI195
aI198
aI209
aI211
aI214
aI215
aI217
aI219
aI222
aI227
aI229
aI230
aI232
aI258
aI265
aI268
aI272
aI273
aI275
aI279
aI282
aI286
aI287
aI291
aI294
aI298
aI299
aI301
aI305
aI308
aI312
aI313
aI315
aI322
asS'/private/var/folders/tY/tYk-BLGGGju0p1L+Vn3SHU+++TM/-Tmp-/tmprYL_to/zc.buildout-1.2.1-py2.5.egg/zc/buildout/buildout.py'
p158
(lp159
I17
aI19
aI20
aI21
aI22
aI23
aI24
aI25
aI26
aI27
aI28
aI29
aI30
aI31
aI33
aI34
aI35
aI37
aI39
aI40
aI45
aI47
aI48
aI50
aI52
aI54
aI57
aI59
aI61
aI63
aI65
aI68
aI69
aI70
aI71
aI72
aI73
aI74
aI75
aI76
aI77
aI80
aI83
aI85
aI87
aI90
aI91
aI93
aI94
aI95
aI96
aI109
aI110
aI115
aI116
aI117
aI118
aI119
aI120
aI123
aI124
aI127
aI134
aI135
aI136
aI140
aI147
aI148
aI149
aI150
aI151
aI153
aI154
aI156
aI157
aI158
aI159
aI161
aI162
aI163
aI171
aI174
aI175
aI177
aI178
aI179
aI181
aI185
aI186
aI187
aI189
aI190
aI191
aI193
aI195
aI196
aI198
aI199
aI201
aI204
aI205
aI207
aI208
aI210
aI211
aI214
aI215
aI218
aI220
aI221
aI224
aI225
aI227
aI228
aI231
aI232
aI234
aI235
aI236
aI237
aI243
aI244
aI247
aI249
aI250
aI258
aI259
aI267
aI268
aI270
aI272
aI273
aI275
aI277
aI278
aI280
aI283
aI284
aI285
aI286
aI287
aI293
aI294
aI295
aI296
aI303
aI304
aI305
aI306
aI307
aI309
aI311
aI509
aI517
aI537
aI538
aI541
aI542
aI543
aI547
aI596
aI605
aI616
aI638
aI661
aI677
aI688
aI691
aI692
aI693
aI694
aI695
aI696
aI699
aI700
aI701
aI702
aI703
aI705
aI706
aI708
aI709
aI710
aI716
aI717
aI718
aI722
aI723
aI724
aI726
aI806
aI834
aI872
aI874
aI875
aI876
aI877
aI878
aI879
aI881
aI882
aI886
aI887
aI888
aI889
aI891
aI894
aI897
aI900
aI904
aI942
aI944
aI945
aI946
aI947
aI948
aI949
aI951
aI952
aI953
aI956
aI957
aI960
aI961
aI975
aI981
aI982
aI983
aI984
aI985
aI987
aI988
aI989
aI990
aI991
aI993
aI995
aI1008
aI1009
aI1011
aI1012
aI1013
aI1014
aI1047
aI1048
aI1049
aI1050
aI1051
aI1053
aI1054
aI1056
aI1058
aI1059
aI1061
aI1063
aI1075
aI1079
aI1085
aI1105
aI1114
aI1122
aI1123
aI1124
aI1125
aI1126
aI1129
aI1143
aI1151
aI1158
aI1164
aI1167
aI1176
aI1177
aI1178
aI1180
aI1183
aI1185
aI1187
aI1188
aI1189
aI1190
aI1191
aI1192
aI1193
aI1194
aI1195
aI1196
aI1198
aI1204
aI1211
aI1212
aI1215
aI1216
aI1230
aI1240
aI1241
aI1242
aI1246
aI1252
aI1253
aI1255
aI1256
aI1257
aI1258
aI1260
aI1261
aI1263
aI1272
aI1289
aI1296
aI1298
aI1412
aI1413
aI1417
aI1418
aI1421
aI1422
aI1423
aI1424
aI1425
aI1426
aI1427
aI1428
aI1429
aI1430
aI1431
aI1454
aI1455
aI1456
aI1458
aI1459
aI1462
aI1463
aI1482
aI1491
aI1493
aI1496
aI1497
aI1498
aI1499
aI1505
aI1506
aI1507
aI1508
aI1509
aI1533
aI1535
asS'/Users/tobias/projects/appengine/bridal/trunk/demo/eggs/zope.tales-3.4.0-py2.5.egg/zope/tales/interfaces.py'
p160
(lp161
I17
aI18
aI20
aI21
aI26
aI28
aI30
aI33
aI38
aI40
aI45
aI46
aI48
aI59
aI61
aI65
aI69
aI73
aI77
aI83
aI87
aI91
aI95
aI99
aI103
aI107
aI111
asS'/Applications/Utilities/GoogleAppEngineLauncher.app/Contents/Resources/GoogleAppEngine-default.bundle/Contents/Resources/google_appengine/google/pyglib/gexcept.py'
p162
(lp163
I39
asS'/Users/tobias/projects/appengine/demo/eggs/nose-0.11.1-py2.5.egg/nose/selector.py'
p164
(lp165
I129
aI130
aI131
aI132
aI133
aI134
aI135
aI140
aI141
aI144
aI148
aI149
aI152
aI153
aI154
aI156
aI157
aI104
aI116
aI35
aI37
aI40
aI41
aI42
aI43
aI44
aI45
aI53
aI54
aI57
aI187
aI188
aI191
aI192
aI193
aI194
aI228
aI196
aI197
aI97
aI96
aI119
aI98
aI99
aI89
aI90
aI91
aI222
aI224
aI225
aI226
aI227
aI100
aI229
aI232
aI105
aI234
aI235
aI236
aI237
aI238
aI239
aI240
aI241
aI244
aI117
aI118
aI233
aI120
aI121
aI122
aI123
aI126
aI127
asS'/private/var/folders/tY/tYk-BLGGGju0p1L+Vn3SHU+++TM/-Tmp-/tmpF824nt/zc.buildout-1.2.1-py2.5.egg/zc/buildout/__init__.py'
p166
(lp167
I17
aI19
aI21
aI23
asS'/private/var/folders/tY/tYk-BLGGGju0p1L+Vn3SHU+++TM/-Tmp-/tmpym6itQ/zc.buildout-1.2.1-py2.5.egg/zc/buildout/__init__.py'
p168
(lp169
I17
aI19
aI21
aI23
asS'/private/var/folders/tY/tYk-BLGGGju0p1L+Vn3SHU+++TM/-Tmp-/tmpg40IKD/zc.buildout-1.2.1-py2.5.egg/zc/buildout/easy_install.py'
p170
(lp171
I1026
aI1028
aI1030
aI1031
aI1032
aI1035
aI1036
aI1037
aI1038
aI1039
aI1040
aI1041
aI1042
aI1044
aI21
aI1046
aI23
aI24
aI25
aI26
aI27
aI28
aI29
aI30
aI1055
aI32
aI33
aI34
aI35
aI36
aI37
aI38
aI39
aI1064
aI41
aI42
aI43
aI45
aI46
aI47
aI1073
aI50
aI52
aI54
aI55
aI57
aI1085
aI63
aI1088
aI69
aI70
aI71
aI74
aI76
aI78
aI79
aI594
aI1120
aI100
aI102
aI615
aI106
aI107
aI113
aI114
aI628
aI1147
aI132
aI134
aI1160
aI1162
aI140
aI142
aI143
aI1169
aI146
aI148
aI149
aI150
aI151
aI152
aI153
aI154
aI1179
aI1181
aI158
aI159
aI160
aI161
aI162
aI163
aI164
aI165
aI166
aI684
aI1197
aI1205
aI1206
aI31
aI1212
aI202
aI750
aI756
aI757
aI758
aI1065
aI760
aI761
aI762
aI764
aI770
aI771
aI772
aI773
aI774
aI776
aI777
aI778
aI779
aI780
aI782
aI783
aI784
aI785
aI786
aI788
aI1070
aI795
aI796
aI797
aI798
aI291
aI806
aI807
aI808
aI299
aI815
aI1067
aI822
aI838
aI839
aI1164
aI399
aI64
aI906
aI910
aI911
aI912
aI913
aI914
aI915
aI918
aI919
aI920
aI922
aI924
aI928
aI931
aI932
aI933
aI934
aI935
aI936
aI937
aI938
aI939
aI940
aI157
aI945
aI946
aI951
aI953
aI954
aI956
aI957
aI958
aI961
aI966
aI455
aI968
aI969
aI759
aI1186
aI979
aI980
aI981
aI984
aI473
aI996
aI1190
aI1009
asS'/Users/tobias/projects/appengine/bridal/trunk/demo/eggs/zope.component-3.7.0-py2.5.egg/zope/component/_declaration.py'
p172
(lp173
I32
aI34
aI27
aI23
aI18
aI17
aI50
aI19
aI53
aI24
aI55
aI56
aI26
aI59
aI30
aI21
asS'/private/var/folders/tY/tYk-BLGGGju0p1L+Vn3SHU+++TM/-Tmp-/tmpzzM1c_/zc.buildout-1.2.1-py2.5.egg/zc/buildout/__init__.py'
p174
(lp175
I17
aI19
aI21
aI23
asS'/private/var/folders/tY/tYk-BLGGGju0p1L+Vn3SHU+++TM/-Tmp-/tmpOlOJYi/zc.buildout-1.2.1-py2.5.egg/zc/buildout/rmtree.py'
p176
(lp177
I65
aI16
aI17
aI18
aI20
aI62
asS'/Applications/Utilities/GoogleAppEngineLauncher.app/Contents/Resources/GoogleAppEngine-default.bundle/Contents/Resources/google_appengine/lib/yaml/lib/yaml/tokens.py'
p178
(lp179
I99
aI36
aI5
aI102
aI103
aI35
aI100
aI37
aI4
aI101
asS'/private/var/folders/tY/tYk-BLGGGju0p1L+Vn3SHU+++TM/-Tmp-/tmpI3pO9x/zc.buildout-1.2.1-py2.5.egg/zc/buildout/easy_install.py'
p180
(lp181
I1026
aI1028
aI1030
aI1031
aI1032
aI1035
aI1036
aI1037
aI1038
aI1039
aI1040
aI1041
aI1042
aI771
aI1044
aI21
aI1046
aI23
aI24
aI25
aI26
aI27
aI28
aI29
aI30
aI31
aI32
aI33
aI34
aI35
aI36
aI37
aI38
aI39
aI1064
aI1065
aI42
aI1067
aI45
aI1070
aI47
aI1073
aI50
aI52
aI54
aI55
aI57
aI1085
aI63
aI64
aI69
aI70
aI71
aI74
aI76
aI78
aI79
aI594
aI1120
aI100
aI102
aI615
aI106
aI107
aI113
aI114
aI628
aI1147
aI132
aI134
aI1160
aI1162
aI140
aI142
aI143
aI1169
aI146
aI148
aI149
aI150
aI151
aI152
aI153
aI154
aI1179
aI157
aI158
aI159
aI160
aI161
aI1186
aI163
aI164
aI165
aI166
aI684
aI1197
aI1205
aI1206
aI1055
aI1212
aI202
aI41
aI750
aI756
aI757
aI758
aI759
aI760
aI761
aI762
aI764
aI770
aI43
aI772
aI773
aI774
aI776
aI777
aI778
aI779
aI780
aI782
aI783
aI784
aI785
aI786
aI788
aI46
aI795
aI796
aI797
aI798
aI291
aI806
aI807
aI808
aI299
aI815
aI822
aI838
aI839
aI1164
aI399
aI1088
aI906
aI910
aI911
aI912
aI913
aI914
aI915
aI918
aI919
aI920
aI922
aI924
aI928
aI931
aI932
aI933
aI934
aI935
aI936
aI937
aI938
aI939
aI940
aI1181
aI945
aI946
aI951
aI953
aI954
aI956
aI957
aI958
aI961
aI966
aI455
aI968
aI969
aI162
aI979
aI980
aI981
aI984
aI473
aI996
aI1190
aI1009
asS'/Applications/Utilities/GoogleAppEngineLauncher.app/Contents/Resources/GoogleAppEngine-default.bundle/Contents/Resources/google_appengine/google/appengine/api/capabilities/capability_stub.py'
p182
(lp183
I38
asS'/Users/tobias/projects/appengine/demo/eggs/zope.tal-3.5.1-py2.5.egg/zope/tal/translationcontext.py'
p184
(lp185
I34
aI35
aI37
aI38
aI39
aI40
aI20
aI21
aI23
aI24
aI26
aI27
asS'/Users/tobias/projects/appengine/demo/eggs/zope.tal-3.5.1-py2.5.egg/zope/tal/interfaces.py'
p186
(lp187
I133
aI30
aI140
aI146
aI19
aI22
aI152
aI28
aI158
aI34
aI165
aI172
aI45
aI51
aI181
aI185
aI187
aI66
aI195
aI197
aI198
aI200
aI201
aI74
aI203
aI204
aI206
aI207
aI82
aI86
aI57
aI90
aI96
aI59
aI100
aI104
aI18
aI113
aI127
asS'/private/var/folders/tY/tYk-BLGGGju0p1L+Vn3SHU+++TM/-Tmp-/tmpZHHBGu/zc.buildout-1.2.1-py2.5.egg/zc/buildout/__init__.py'
p188
(lp189
I17
aI19
aI21
aI23
asS'/Users/tobias/projects/appengine/demo/eggs/zope.tales-3.4.0-py2.5.egg/zope/tales/expressions.py'
p190
(lp191
I17
aI18
aI20
aI21
aI22
aI24
aI26
aI27
aI29
aI33
aI34
aI35
aI36
aI42
aI45
aI47
aI48
aI49
aI52
aI53
aI54
aI55
aI58
aI67
aI68
aI84
aI86
aI87
aI89
aI90
aI92
aI96
aI101
aI104
aI105
aI106
aI109
aI110
aI112
aI114
aI115
aI118
aI119
aI122
aI123
aI124
aI139
aI142
aI143
aI144
aI152
aI155
aI156
aI157
aI158
aI159
aI160
aI161
aI162
aI163
aI164
aI170
aI172
aI182
aI183
aI194
aI195
aI198
aI209
aI211
aI214
aI215
aI217
aI219
aI222
aI227
aI229
aI230
aI232
aI233
aI234
aI236
aI237
aI256
aI258
aI259
aI260
aI263
aI265
aI268
aI272
aI273
aI275
aI279
aI282
aI286
aI287
aI291
aI294
aI298
aI299
aI301
aI305
aI308
aI312
aI313
aI315
aI322
asS'/Users/tobias/projects/appengine/bridal/trunk/demo/eggs/zope.i18nmessageid-3.4.3-py2.5-macosx-10.3-i386.egg/zope/i18nmessageid/message.py'
p192
(lp193
I17
aI167
aI136
aI170
aI140
aI174
aI157
aI176
aI177
aI18
aI20
aI181
aI182
aI184
aI185
aI187
aI138
asS'/private/var/folders/tY/tYk-BLGGGju0p1L+Vn3SHU+++TM/-Tmp-/tmp1FPDfZ/zc.buildout-1.2.1-py2.5.egg/zc/buildout/rmtree.py'
p194
(lp195
I65
aI16
aI17
aI18
aI20
aI62
asS'/Applications/Utilities/GoogleAppEngineLauncher.app/Contents/Resources/GoogleAppEngine-default.bundle/Contents/Resources/google_appengine/lib/yaml/lib/yaml/parser.py'
p196
(lp197
I84
aI85
aI86
aI87
aI88
aI89
aI93
aI94
aI95
aI96
aI97
aI98
aI102
aI113
aI116
aI117
aI118
aI127
aI128
aI129
aI132
aI134
aI139
aI140
aI141
aI142
aI143
aI144
aI145
aI148
aI149
aI151
aI159
aI163
aI180
aI181
aI182
aI183
aI184
aI185
aI190
aI191
aI192
aI193
aI197
aI198
aI201
aI203
aI262
aI268
aI271
aI276
aI277
aI278
aI279
aI289
aI298
aI312
aI313
aI314
aI315
aI316
aI317
aI318
aI319
aI320
aI322
aI323
aI324
aI325
aI326
aI331
aI332
aI333
aI334
aI339
aI344
aI349
aI350
aI351
aI352
aI353
aI369
aI400
aI401
aI402
aI403
aI404
aI405
aI409
aI410
aI411
aI412
aI420
aI421
aI422
aI425
aI426
aI427
aI428
aI429
aI433
aI437
aI438
aI439
aI440
aI441
aI444
aI445
aI446
aI447
aI448
asS'/Users/tobias/projects/appengine/demo/bootstrap.py'
p198
(lp199
I21
aI23
aI25
aI27
aI29
aI30
aI39
aI46
aI47
aI49
aI50
aI52
aI64
aI65
aI66
aI67
aI69
aI71
aI73
aI74
aI75
aI76
aI77
asS'/Applications/Utilities/GoogleAppEngineLauncher.app/Contents/Resources/GoogleAppEngine-default.bundle/Contents/Resources/google_appengine/lib/yaml/lib/yaml/composer.py'
p200
(lp201
I14
asS'/Users/tobias/projects/appengine/bridal/trunk/demo/src/demo/demo.py'
p202
(lp203
I130
aI22
aI134
aI135
aI136
aI138
aI151
aI141
aI15
aI17
aI18
aI20
aI21
aI150
aI23
aI24
aI25
aI26
aI27
aI156
aI157
aI30
aI159
aI33
aI155
aI37
aI38
aI40
aI28
aI42
aI43
aI44
aI47
aI51
aI53
aI55
aI56
aI57
aI59
aI60
aI61
aI62
aI65
aI66
aI69
aI70
aI72
aI74
aI75
aI76
aI78
aI81
aI85
aI87
aI88
aI89
aI152
aI92
aI94
aI96
aI97
aI99
aI90
aI102
aI103
aI105
aI29
aI110
aI113
aI115
aI117
aI120
aI122
aI123
aI166
aI125
aI126
aI127
asS'/Users/tobias/projects/appengine/demo/eggs/zope.i18nmessageid-3.4.3-py2.5-macosx-10.3-i386.egg/zope/i18nmessageid/message.py'
p204
(lp205
I17
aI167
aI136
aI170
aI140
aI174
aI157
aI176
aI177
aI18
aI20
aI181
aI182
aI184
aI185
aI187
aI138
asS'/Users/tobias/projects/appengine/bridal/trunk/demo/src/demo/pagetemplate.py'
p206
(lp207
I32
aI34
aI37
aI38
aI39
aI40
aI41
aI44
aI46
aI15
aI17
aI18
aI21
aI22
aI24
aI25
aI27
aI30
aI31
asS'/Users/tobias/projects/appengine/demo/src/demo/interfaces.py'
p208
(lp209
I1
aI3
aI36
aI38
aI6
aI7
aI10
aI11
aI14
aI15
aI17
aI35
aI20
aI21
aI22
aI24
aI25
aI28
aI29
aI31
asS'/Users/tobias/projects/appengine/bridal/trunk/demo/eggs/zope.interface-3.5.1-py2.5-macosx-10.3-i386.egg/zope/interface/exceptions.py'
p210
(lp211
I64
aI33
aI35
aI37
aI51
aI17
aI41
aI55
aI60
aI47
aI49
aI19
aI21
aI23
aI24
aI25
aI28
aI62
aI69
asS'/Users/tobias/projects/appengine/bridal/trunk/demo/eggs/nose-0.11.1-py2.5.egg/nose/importer.py'
p212
(lp213
I130
aI131
aI133
aI134
aI135
aI136
aI137
aI138
aI139
aI140
aI141
aI142
aI143
aI144
aI145
aI146
aI147
aI148
aI22
aI152
aI153
aI154
aI32
aI33
aI34
aI36
aI37
aI39
aI45
aI46
aI24
aI51
aI54
aI55
aI57
aI58
aI59
aI60
aI62
aI63
aI64
aI66
aI67
aI68
aI69
aI70
aI71
aI72
aI73
aI77
aI78
aI81
aI86
aI88
aI89
aI90
aI91
aI92
aI93
aI94
aI95
aI96
aI99
aI100
aI101
aI102
aI103
aI104
aI105
aI106
aI107
aI108
aI113
aI114
aI115
aI116
aI117
aI118
aI119
asS'/Users/tobias/projects/appengine/bridal/trunk/demo/eggs/nose-0.11.1-py2.5.egg/nose/proxy.py'
p214
(lp215
I142
aI143
aI144
aI147
aI148
aI149
aI155
aI156
aI157
aI30
aI43
aI45
aI46
aI47
aI57
aI58
aI59
aI60
aI62
aI64
aI78
aI80
aI81
aI82
aI83
aI92
aI93
aI94
aI100
aI101
aI102
aI106
aI107
aI108
aI112
aI113
aI114
aI115
aI118
aI119
aI120
aI121
aI122
aI123
asS'/Users/tobias/projects/appengine/bridal/trunk/demo/eggs/zope.tal-3.5.1-py2.5.egg/zope/tal/htmltalparser.py'
p216
(lp217
I17
aI19
aI21
aI23
aI26
aI30
aI31
aI32
aI35
aI39
aI40
aI43
aI46
aI49
aI50
aI51
aI52
aI53
aI54
aI55
aI58
aI60
aI61
aI64
aI66
aI69
aI70
aI72
aI85
aI86
aI88
aI93
aI94
aI96
aI101
aI105
aI106
aI107
aI109
aI110
aI111
aI112
aI113
aI114
aI117
aI127
aI128
aI129
aI130
aI132
aI134
aI135
aI139
aI140
aI141
aI143
aI144
aI149
aI154
aI155
aI156
aI157
aI158
aI160
aI161
aI162
aI164
aI165
aI174
aI175
aI176
aI178
aI179
aI182
aI183
aI184
aI185
aI187
aI188
aI189
aI190
aI191
aI199
aI200
aI201
aI202
aI203
aI204
aI208
aI212
aI213
aI215
aI217
aI219
aI220
aI221
aI222
aI223
aI228
aI229
aI230
aI231
aI233
aI234
aI236
aI239
aI242
aI243
aI245
aI246
aI248
aI249
aI251
aI252
aI256
aI257
aI258
aI259
aI260
aI261
aI262
aI263
aI264
aI266
aI267
aI269
aI270
aI271
aI272
aI275
aI276
aI277
aI278
aI279
aI280
aI281
aI283
aI284
aI285
aI286
aI288
aI289
aI290
aI291
aI292
aI293
aI294
aI295
aI296
aI297
aI298
aI299
aI300
aI301
aI304
aI305
aI310
aI315
aI316
aI318
asS'/private/var/folders/tY/tYk-BLGGGju0p1L+Vn3SHU+++TM/-Tmp-/tmpI3pO9x/zc.buildout-1.2.1-py2.5.egg/zc/buildout/__init__.py'
p218
(lp219
I17
aI19
aI21
aI23
asS'/Users/tobias/projects/appengine/demo/eggs/zope.component-3.7.0-py2.5.egg/zope/component/_api.py'
p220
(lp221
I132
aI23
aI140
aI173
aI17
aI18
aI19
aI21
aI22
aI151
aI152
aI25
aI26
aI27
aI28
aI29
aI30
aI31
aI160
aI176
aI36
aI37
aI38
aI167
aI44
aI45
aI46
aI48
aI49
aI50
aI51
aI180
aI184
aI186
aI62
aI32
aI68
aI161
aI202
aI217
aI221
aI95
aI224
aI101
aI102
aI39
aI108
aI109
aI110
aI112
aI114
aI115
aI116
aI117
aI122
aI124
asS'/private/var/folders/tY/tYk-BLGGGju0p1L+Vn3SHU+++TM/-Tmp-/tmpF824nt/zc.buildout-1.2.1-py2.5.egg/zc/buildout/easy_install.py'
p222
(lp223
I1026
aI1028
aI1030
aI1031
aI1032
aI1035
aI1036
aI1037
aI1038
aI1039
aI1040
aI1041
aI1042
aI1044
aI21
aI1046
aI23
aI24
aI25
aI26
aI27
aI28
aI29
aI30
aI31
aI32
aI33
aI34
aI35
aI36
aI37
aI38
aI39
aI1064
aI1065
aI42
aI43
aI45
aI46
aI47
aI1073
aI50
aI52
aI54
aI55
aI57
aI1085
aI63
aI64
aI69
aI70
aI71
aI74
aI76
aI78
aI79
aI594
aI1120
aI100
aI102
aI615
aI106
aI107
aI113
aI114
aI628
aI1147
aI132
aI134
aI1160
aI1162
aI1164
aI142
aI143
aI1169
aI146
aI148
aI149
aI150
aI151
aI152
aI153
aI154
aI1179
aI157
aI158
aI159
aI160
aI161
aI1186
aI163
aI164
aI165
aI166
aI684
aI1197
aI1205
aI1206
aI1055
aI1212
aI202
aI750
aI756
aI757
aI758
aI41
aI760
aI761
aI762
aI764
aI770
aI771
aI772
aI773
aI774
aI776
aI777
aI778
aI779
aI780
aI782
aI783
aI784
aI785
aI786
aI788
aI1070
aI795
aI796
aI797
aI798
aI291
aI806
aI807
aI808
aI299
aI815
aI1067
aI822
aI838
aI839
aI140
aI399
aI1088
aI906
aI910
aI911
aI912
aI913
aI914
aI915
aI918
aI919
aI920
aI922
aI924
aI928
aI931
aI932
aI933
aI934
aI935
aI936
aI937
aI938
aI939
aI940
aI1181
aI945
aI946
aI951
aI953
aI954
aI956
aI957
aI958
aI961
aI966
aI455
aI968
aI969
aI759
aI162
aI979
aI980
aI981
aI984
aI473
aI996
aI1190
aI1009
asS'/private/var/folders/tY/tYk-BLGGGju0p1L+Vn3SHU+++TM/-Tmp-/tmpzzM1c_/zc.buildout-1.2.1-py2.5.egg/zc/buildout/buildout.py'
p224
(lp225
I17
aI19
aI20
aI21
aI22
aI23
aI24
aI25
aI26
aI27
aI28
aI29
aI30
aI31
aI33
aI34
aI35
aI37
aI39
aI40
aI45
aI47
aI48
aI50
aI52
aI54
aI57
aI59
aI61
aI63
aI65
aI68
aI69
aI70
aI71
aI72
aI73
aI74
aI75
aI76
aI77
aI80
aI83
aI85
aI87
aI90
aI91
aI93
aI94
aI95
aI96
aI109
aI110
aI115
aI116
aI117
aI118
aI119
aI120
aI123
aI124
aI127
aI134
aI135
aI136
aI140
aI147
aI148
aI149
aI150
aI151
aI153
aI154
aI156
aI157
aI158
aI159
aI161
aI162
aI163
aI171
aI174
aI175
aI177
aI178
aI179
aI181
aI185
aI186
aI187
aI189
aI190
aI191
aI193
aI195
aI196
aI198
aI199
aI201
aI204
aI205
aI207
aI208
aI210
aI211
aI214
aI215
aI218
aI220
aI221
aI224
aI225
aI227
aI228
aI231
aI232
aI234
aI235
aI236
aI237
aI243
aI244
aI247
aI249
aI250
aI258
aI259
aI267
aI268
aI270
aI272
aI273
aI275
aI277
aI278
aI280
aI283
aI284
aI285
aI286
aI287
aI293
aI294
aI295
aI296
aI303
aI304
aI305
aI306
aI307
aI309
aI311
aI509
aI517
aI537
aI538
aI541
aI542
aI543
aI547
aI596
aI605
aI616
aI638
aI661
aI677
aI688
aI691
aI692
aI693
aI694
aI695
aI696
aI699
aI700
aI701
aI702
aI703
aI705
aI706
aI708
aI709
aI710
aI716
aI717
aI718
aI722
aI723
aI724
aI726
aI806
aI834
aI872
aI874
aI875
aI876
aI877
aI878
aI879
aI881
aI882
aI886
aI887
aI888
aI889
aI891
aI894
aI897
aI900
aI904
aI942
aI944
aI945
aI946
aI947
aI948
aI949
aI951
aI952
aI953
aI956
aI957
aI960
aI961
aI975
aI981
aI982
aI983
aI984
aI985
aI987
aI988
aI989
aI990
aI991
aI993
aI995
aI1008
aI1009
aI1011
aI1012
aI1013
aI1014
aI1047
aI1048
aI1049
aI1050
aI1051
aI1053
aI1054
aI1056
aI1058
aI1059
aI1061
aI1063
aI1075
aI1079
aI1085
aI1105
aI1114
aI1122
aI1123
aI1124
aI1125
aI1126
aI1129
aI1143
aI1151
aI1158
aI1164
aI1167
aI1176
aI1177
aI1178
aI1180
aI1183
aI1185
aI1187
aI1188
aI1189
aI1190
aI1191
aI1192
aI1193
aI1194
aI1195
aI1196
aI1198
aI1204
aI1211
aI1212
aI1215
aI1216
aI1230
aI1240
aI1241
aI1242
aI1246
aI1252
aI1253
aI1255
aI1256
aI1257
aI1258
aI1260
aI1261
aI1263
aI1272
aI1289
aI1296
aI1298
aI1412
aI1413
aI1417
aI1418
aI1421
aI1422
aI1423
aI1424
aI1425
aI1426
aI1427
aI1428
aI1429
aI1430
aI1431
aI1454
aI1455
aI1456
aI1458
aI1459
aI1462
aI1463
aI1482
aI1491
aI1493
aI1496
aI1497
aI1498
aI1499
aI1505
aI1506
aI1507
aI1508
aI1509
aI1533
aI1535
asS'/Users/tobias/projects/appengine/bridal/trunk/demo/eggs/zope.component-3.7.0-py2.5.egg/zope/component/globalregistry.py'
p226
(lp227
I17
aI18
aI19
aI20
aI21
aI22
aI24
aI27
aI31
aI33
aI34
aI35
aI36
aI38
aI41
aI43
aI44
aI45
aI47
aI51
aI53
aI54
aI55
aI56
aI61
aI62
aI63
aI69
aI73
aI76
aI79
aI82
asS'/Users/tobias/projects/appengine/demo/__init__.py'
p228
(lp229
I1
aI2
aI3
aI4
aI5
aI6
aI7
aI8
aI9
aI10
aI11
aI12
aI13
aI14
aI15
aI16
aI17
aI18
aI19
aI22
aI23
aI24
aI26
aI1051
aI28
aI544
aI91
aI36
aI37
aI39
aI40
aI1331
aI42
aI44
aI377
aI46
aI47
aI48
aI49
aI50
aI51
aI53
aI55
aI1081
aI63
aI64
aI1090
aI1366
aI71
aI76
aI77
aI1102
aI79
aI80
aI81
aI83
aI526
aI88
aI343
aI90
aI527
aI92
aI93
aI95
aI97
aI98
aI99
aI101
aI1126
aI1128
aI1137
aI1141
aI1144
aI633
aI1146
aI1149
aI1368
aI132
aI134
aI135
aI1165
aI143
aI144
aI657
aI147
aI148
aI149
aI150
aI1175
aI152
aI153
aI1178
aI667
aI156
aI157
aI670
aI672
aI161
aI1186
aI163
aI164
aI165
aI678
aI679
aI681
aI1194
aI683
aI172
aI1197
aI174
aI177
aI178
aI371
aI180
aI181
aI182
aI183
aI184
aI185
aI1210
aI187
aI188
aI190
aI191
aI192
aI1225
aI1227
aI204
aI1229
aI206
aI205
aI208
aI1233
aI210
aI1235
aI212
aI365
aI1242
aI207
aI734
aI1403
aI228
aI229
aI307
aI746
aI1184
aI1260
aI750
aI239
aI1064
aI211
aI1275
aI1277
aI1279
aI770
aI1283
aI1285
aI268
aI1295
aI1298
aI1300
aI302
aI791
aI1304
aI793
aI1306
aI1310
aI287
aI1313
aI293
aI294
aI295
aI296
aI476
aI1322
aI1324
aI301
aI1326
aI303
aI304
aI305
aI306
aI819
aI308
aI1246
aI310
aI311
aI313
aI314
aI1339
aI316
aI1342
aI821
aI320
aI1345
aI1348
aI328
aI329
aI330
aI331
aI332
aI1359
aI1361
aI1363
aI659
aI341
aI854
aI1337
aI344
aI345
aI1370
aI347
aI1373
aI1375
aI1377
aI354
aI315
aI1380
aI357
aI358
aI359
aI360
aI1385
aI874
aI1387
aI876
aI1389
aI366
aI367
aI1395
aI318
aI374
aI375
aI889
aI1356
aI319
aI892
aI893
aI661
aI384
aI1172
aI899
aI388
aI389
aI391
aI57
aI395
aI397
aI400
aI1428
aI173
aI1177
aI409
aI413
aI926
aI415
aI1440
aI155
aI934
aI1382
aI1180
aI426
aI355
aI321
aI431
aI433
aI435
aI1354
aI928
aI66
aI373
aI356
aI461
aI78
aI1017
aI702
aI477
aI1158
aI381
aI998
aI1039
aI167
aI1329
aI921
aI852
aI102
asS'/private/var/folders/tY/tYk-BLGGGju0p1L+Vn3SHU+++TM/-Tmp-/tmp6RKWAY/zc.buildout-1.2.1-py2.5.egg/zc/buildout/buildout.py'
p230
(lp231
I17
aI19
aI20
aI21
aI22
aI23
aI24
aI25
aI26
aI27
aI28
aI29
aI30
aI31
aI33
aI34
aI35
aI37
aI39
aI40
aI45
aI47
aI48
aI50
aI52
aI54
aI57
aI59
aI61
aI63
aI65
aI68
aI69
aI70
aI71
aI72
aI73
aI74
aI75
aI76
aI77
aI80
aI83
aI85
aI87
aI90
aI91
aI93
aI94
aI95
aI96
aI109
aI110
aI115
aI116
aI117
aI118
aI119
aI120
aI123
aI124
aI127
aI134
aI135
aI136
aI140
aI147
aI148
aI149
aI150
aI151
aI153
aI154
aI156
aI157
aI158
aI159
aI161
aI162
aI163
aI171
aI174
aI175
aI177
aI178
aI179
aI181
aI185
aI186
aI187
aI189
aI190
aI191
aI193
aI195
aI196
aI198
aI199
aI201
aI204
aI205
aI207
aI208
aI210
aI211
aI214
aI215
aI218
aI220
aI221
aI224
aI225
aI227
aI228
aI231
aI232
aI234
aI235
aI236
aI237
aI243
aI244
aI247
aI249
aI250
aI258
aI259
aI267
aI268
aI270
aI272
aI273
aI275
aI277
aI278
aI280
aI283
aI284
aI285
aI286
aI287
aI293
aI294
aI295
aI296
aI303
aI304
aI305
aI306
aI307
aI309
aI311
aI509
aI517
aI537
aI538
aI541
aI542
aI543
aI547
aI596
aI605
aI616
aI638
aI661
aI677
aI688
aI691
aI692
aI693
aI694
aI695
aI696
aI699
aI700
aI701
aI702
aI703
aI705
aI706
aI708
aI709
aI710
aI716
aI717
aI718
aI722
aI723
aI724
aI726
aI806
aI834
aI872
aI874
aI875
aI876
aI877
aI878
aI879
aI881
aI882
aI886
aI887
aI888
aI889
aI891
aI894
aI897
aI900
aI904
aI942
aI944
aI945
aI946
aI947
aI948
aI949
aI951
aI952
aI953
aI956
aI957
aI960
aI961
aI975
aI981
aI982
aI983
aI984
aI985
aI987
aI988
aI989
aI990
aI991
aI993
aI995
aI1008
aI1009
aI1011
aI1012
aI1013
aI1014
aI1047
aI1048
aI1049
aI1050
aI1051
aI1053
aI1054
aI1056
aI1058
aI1059
aI1061
aI1063
aI1075
aI1079
aI1085
aI1105
aI1114
aI1122
aI1123
aI1124
aI1125
aI1126
aI1129
aI1143
aI1151
aI1158
aI1164
aI1167
aI1176
aI1177
aI1178
aI1180
aI1183
aI1185
aI1187
aI1188
aI1189
aI1190
aI1191
aI1192
aI1193
aI1194
aI1195
aI1196
aI1198
aI1204
aI1211
aI1212
aI1215
aI1216
aI1230
aI1240
aI1241
aI1242
aI1246
aI1252
aI1253
aI1255
aI1256
aI1257
aI1258
aI1260
aI1261
aI1263
aI1272
aI1289
aI1296
aI1298
aI1412
aI1413
aI1417
aI1418
aI1421
aI1422
aI1423
aI1424
aI1425
aI1426
aI1427
aI1428
aI1429
aI1430
aI1431
aI1454
aI1455
aI1456
aI1458
aI1459
aI1462
aI1463
aI1482
aI1491
aI1493
aI1496
aI1497
aI1498
aI1499
aI1505
aI1506
aI1507
aI1508
aI1509
aI1533
aI1535
asS'/Users/tobias/projects/appengine/demo/eggs/zope.component-3.7.0-py2.5.egg/zope/component/globalregistry.py'
p232
(lp233
I17
aI18
aI19
aI20
aI21
aI22
aI24
aI27
aI31
aI33
aI34
aI35
aI36
aI38
aI41
aI43
aI44
aI45
aI47
aI51
aI53
aI54
aI55
aI56
aI61
aI62
aI63
aI69
aI73
aI76
aI79
aI82
asS'/private/var/folders/tY/tYk-BLGGGju0p1L+Vn3SHU+++TM/-Tmp-/tmphrxJOz/zc.buildout-1.2.1-py2.5.egg/zc/buildout/rmtree.py'
p234
(lp235
I65
aI16
aI17
aI18
aI20
aI62
asS'/Users/tobias/projects/appengine/bridal/trunk/demo/depends.py'
p236
(lp237
I1
aI2
aI3
aI36
aI165
aI70
aI7
aI42
aI75
aI13
aI206
aI240
aI11
aI10
aI83
aI14
aI4
aI124
aI29
asS'/private/var/folders/tY/tYk-BLGGGju0p1L+Vn3SHU+++TM/-Tmp-/tmpzzM1c_/zc.buildout-1.2.1-py2.5.egg/zc/buildout/rmtree.py'
p238
(lp239
I65
aI16
aI17
aI18
aI20
aI62
asS'/Users/tobias/projects/appengine/demo/install_lib.py'
p240
(lp241
I1
aI2
aI4
aI5
aI71
aI7
aI44
aI19
aI26
asS'/Users/tobias/projects/appengine/bridal/trunk/demo/eggs/coverage-3.0b3-py2.5-macosx-10.3-i386.egg/coverage/__init__.py'
p242
(lp243
I36
aI38
asS'/Users/tobias/projects/appengine/bridal/trunk/demo/eggs/zope.tal-3.5.1-py2.5.egg/zope/tal/talgenerator.py'
p244
(lp245
I512
aI513
aI514
aI515
aI516
aI517
aI518
aI519
aI520
aI521
aI522
aI290
aI526
aI527
aI528
aI17
aI18
aI19
aI21
aI22
aI23
aI24
aI25
aI539
aI28
aI30
aI32
aI33
aI34
aI547
aI36
aI37
aI40
aI41
aI43
aI558
aI47
aI51
aI52
aI54
aI567
aI56
aI569
aI58
aI59
aI62
aI63
aI65
aI66
aI67
aI68
aI581
aI70
aI71
aI584
aI585
aI74
aI75
aI76
aI77
aI78
aI79
aI80
aI81
aI82
aI83
aI596
aI85
aI86
aI87
aI88
aI601
aI90
aI91
aI92
aI93
aI97
aI98
aI99
aI105
aI106
aI107
aI108
aI530
aI110
aI189
aI113
aI114
aI115
aI116
aI629
aI118
aI119
aI632
aI122
aI641
aI644
aI193
aI535
aI652
aI653
aI109
aI144
aI658
aI147
aI148
aI149
aI150
aI151
aI152
aI153
aI154
aI155
aI156
aI669
aI158
aI197
aI672
aI161
aI162
aI163
aI165
aI166
aI625
aI168
aI170
aI171
aI172
aI626
aI174
aI175
aI176
aI177
aI178
aI627
aI180
aI181
aI182
aI713
aI628
aI186
aI699
aI188
aI701
aI702
aI191
aI704
aI705
aI706
aI707
aI708
aI709
aI711
aI200
aI201
aI631
aI716
aI717
aI206
aI719
aI208
aI120
aI210
aI211
aI212
aI718
aI726
aI215
aI630
aI729
aI730
aI207
aI732
aI733
aI734
aI735
aI736
aI737
aI738
aI739
aI740
aI741
aI742
aI231
aI744
aI745
aI234
aI747
aI722
aI239
aI241
aI242
aI723
aI244
aI757
aI248
aI249
aI762
aI251
aI253
aI254
aI213
aI256
aI259
aI196
aI179
aI775
aI778
aI779
aI721
aI274
aI788
aI790
aI792
aI794
aI796
aI797
aI798
aI802
aI731
aI804
aI806
aI295
aI647
aI813
aI305
aI306
aI307
aI308
aI309
aI822
aI312
aI564
aI315
aI224
aI326
aI225
aI330
aI55
aI727
aI848
aI338
aI227
aI855
aI228
aI725
aI348
aI570
aI199
aI229
aI361
aI743
aI146
aI367
aI232
aI183
aI609
aI89
aI700
aI383
aI235
aI698
aI57
aI396
aI664
aI173
aI418
aI667
aI375
aI563
aI72
aI313
aI243
aI670
aI219
aI73
aI442
aI671
aI190
aI761
aI449
aI450
aI673
aI465
aI466
aI468
aI469
aI470
aI471
aI472
aI473
aI477
aI478
aI479
aI483
aI484
aI485
aI715
aI487
aI488
aI194
aI490
aI167
aI493
aI765
aI500
aI187
aI84
aI507
aI508
aI509
aI510
aI511
asS'/Applications/Utilities/GoogleAppEngineLauncher.app/Contents/Resources/GoogleAppEngine-default.bundle/Contents/Resources/google_appengine/lib/yaml/lib/yaml/nodes.py'
p246
(lp247
I32
aI33
aI29
aI30
aI31
asS'/Applications/Utilities/GoogleAppEngineLauncher.app/Contents/Resources/GoogleAppEngine-default.bundle/Contents/Resources/google_appengine/lib/yaml/lib/yaml/constructor.py'
p248
(lp249
I230
aI252
aI26
aI27
aI28
aI29
aI163
aI167
aI54
aI57
aI59
aI62
aI63
aI64
aI65
aI66
aI67
aI227
aI86
aI87
aI100
aI90
aI98
aI99
aI228
aI229
aI102
aI232
aI105
aI234
aI236
aI109
aI238
aI240
aI242
aI380
aI381
aI382
asS'/Applications/Utilities/GoogleAppEngineLauncher.app/Contents/Resources/GoogleAppEngine-default.bundle/Contents/Resources/google_appengine/lib/webob/webob/__init__.py'
p250
(lp251
I515
aI519
aI1547
aI1548
aI1549
aI530
aI1369
aI1564
aI1565
aI1568
aI1569
aI1571
aI2084
aI1573
aI1574
aI1575
aI582
aI583
aI584
aI585
aI586
aI587
aI594
aI597
aI598
aI599
aI600
aI601
aI603
aI2140
aI2141
aI2142
aI610
aI617
aI108
aI110
aI624
aI116
aI642
aI643
aI645
aI1177
aI1178
aI1179
aI1180
aI1182
aI1183
aI1184
aI1185
aI1186
aI1187
aI164
aI1190
aI1191
aI1192
aI1193
aI170
aI1188
aI1210
aI1211
aI1212
aI1213
aI1217
aI1218
aI1219
aI207
aI208
aI2083
aI1236
aI2085
aI1251
aI1252
aI1253
aI1257
aI1258
aI1259
aI1260
aI1261
aI1262
aI1263
aI1264
aI1265
aI1266
aI1267
aI1268
aI1269
aI1270
aI1271
aI1272
aI1273
aI1274
aI1276
aI1299
aI1300
aI1301
aI1302
aI1304
aI1321
aI391
aI1324
aI1327
aI1328
aI1331
aI1332
aI1333
aI1334
aI1335
aI1336
aI1342
aI1344
aI1346
aI1347
aI1350
aI839
aI840
aI842
aI1355
aI847
aI1360
aI1361
aI1362
aI853
aI854
aI856
aI857
aI861
aI865
aI866
aI867
aI868
aI869
aI870
aI871
aI872
aI873
aI1393
aI1396
aI1398
aI1402
aI166
aI1407
aI901
aI902
aI1415
aI393
aI907
aI908
aI1424
aI913
aI914
aI1443
aI1956
aI1958
aI1447
aI1448
aI943
aI951
aI952
aI953
aI954
aI955
aI956
aI466
aI469
aI472
aI1444
aI475
aI478
aI479
aI480
aI481
aI482
aI483
aI484
aI1446
aI488
aI489
aI903
aI1194
asS'/private/var/folders/tY/tYk-BLGGGju0p1L+Vn3SHU+++TM/-Tmp-/tmpF824nt/zc.buildout-1.2.1-py2.5.egg/zc/buildout/rmtree.py'
p252
(lp253
I65
aI16
aI17
aI18
aI20
aI62
asS'/Users/tobias/projects/appengine/bridal/trunk/demo/eggs/zope.tal-3.5.1-py2.5.egg/zope/tal/__init__.py'
p254
(lp255
I1
asS'/Applications/Utilities/GoogleAppEngineLauncher.app/Contents/Resources/GoogleAppEngine-default.bundle/Contents/Resources/google_appengine/lib/yaml/lib/yaml/loader.py'
p256
(lp257
I24
aI25
aI26
aI27
aI28
aI29
asS'/Users/tobias/projects/appengine/bridal/trunk/demo/eggs/zope.pagetemplate-3.5.0-py2.5.egg/zope/pagetemplate/interfaces.py'
p258
(lp259
I97
aI34
aI107
aI38
aI71
aI104
aI63
aI106
aI75
aI78
aI17
aI18
aI51
aI21
aI55
aI23
aI25
aI58
aI91
aI60
aI85
asS'/Users/tobias/projects/appengine/demo/eggs/zope.interface-3.5.1-py2.5-macosx-10.3-i386.egg/zope/interface/interfaces.py'
p260
(lp261
I385
aI258
aI643
aI716
aI133
aI51
aI135
aI520
aI556
aI394
aI450
aI270
aI143
aI400
aI17
aI18
aI276
aI21
aI22
aI663
aI24
aI665
aI26
aI111
aI28
aI29
aI31
aI672
aI290
aI37
aI422
aI730
aI43
aI300
aI429
aI302
aI50
aI307
aI309
aI54
aI695
aI58
aI59
aI316
aI61
aI702
aI53
aI320
aI706
aI684
aI710
aI97
aI456
aI332
aI588
aI77
aI653
aI720
aI282
aI85
aI86
aI88
aI346
aI101
aI618
aI229
aI737
aI357
aI231
aI361
aI691
aI46
aI495
aI116
aI118
aI247
aI505
aI293
aI124
aI239
aI126
aI383
asS'/Applications/Utilities/GoogleAppEngineLauncher.app/Contents/Resources/GoogleAppEngine-default.bundle/Contents/Resources/google_appengine/lib/yaml/lib/yaml/error.py'
p262
(lp263
I7
aI8
aI9
aI10
aI11
aI12
asS'/private/var/folders/tY/tYk-BLGGGju0p1L+Vn3SHU+++TM/-Tmp-/tmpUOY8un/zc.buildout-1.2.1-py2.5.egg/zc/__init__.py'
p264
(lp265
I1
aI2
asS'/private/var/folders/tY/tYk-BLGGGju0p1L+Vn3SHU+++TM/-Tmp-/tmp1FPDfZ/zc.buildout-1.2.1-py2.5.egg/zc/buildout/__init__.py'
p266
(lp267
I17
aI19
aI21
aI23
asS'/Users/tobias/projects/appengine/demo/sdist.py'
p268
(lp269
I1
aI2
aI131
aI4
aI134
aI129
aI8
aI138
aI11
aI140
aI130
aI16
aI17
aI3
aI132
aI26
aI155
aI28
aI48
aI165
aI42
aI7
aI176
aI59
aI83
aI85
aI102
aI103
aI104
aI105
aI106
aI124
aI125
asS'/Users/tobias/projects/appengine/demo/eggs/zope.interface-3.5.1-py2.5-macosx-10.3-i386.egg/zope/interface/declarations.py'
p270
(lp271
I512
aI513
aI1026
aI516
aI1030
aI519
aI1032
aI522
aI1050
aI28
aI29
aI31
aI32
aI33
aI34
aI35
aI36
aI37
aI1024
aI40
aI1372
aI42
aI43
aI45
aI46
aI48
aI49
aI50
aI51
aI52
aI53
aI55
aI864
aI582
aI584
aI82
aI1382
aI1131
aI110
aI1137
aI1385
aI640
aI646
aI1160
aI1161
aI650
aI652
aI653
aI654
aI655
aI1168
aI657
aI660
aI1173
aI662
aI1179
aI689
aI693
aI347
aI695
aI186
aI972
aI484
aI467
aI1247
aI847
aI236
aI1261
aI750
aI751
aI752
aI753
aI755
aI756
aI245
aI759
aI248
aI251
aI253
aI255
aI258
aI261
aI520
aI473
aI1311
aI1316
aI1318
aI476
aI299
aI300
aI760
aI477
aI1018
aI505
aI1350
aI481
aI840
aI1164
aI1354
aI331
aI334
aI335
aI848
aI1362
aI851
aI340
aI1365
aI1366
aI1367
aI856
aI1369
aI1370
aI143
aI348
aI861
aI1374
aI1376
aI1377
aI354
aI355
aI1381
aI358
aI1383
aI360
aI361
aI362
aI363
aI365
aI367
aI336
aI369
aI370
aI371
aI374
aI375
aI377
aI379
aI381
aI383
aI1172
aI1023
aI416
aI417
aI418
aI931
aI421
aI841
aI970
aI460
aI461
aI464
aI465
aI466
aI419
aI468
aI469
aI471
aI985
aI474
aI475
aI988
aI989
aI479
aI993
aI482
aI483
aI996
aI485
aI488
aI490
aI493
aI1363
aI852
aI506
aI507
aI1020
aI1021
aI1022
aI853
asS'/private/var/folders/tY/tYk-BLGGGju0p1L+Vn3SHU+++TM/-Tmp-/tmpuQQYJ1/zc.buildout-1.2.1-py2.5.egg/zc/buildout/__init__.py'
p272
(lp273
I17
aI19
aI21
aI23
asS'/Applications/Utilities/GoogleAppEngineLauncher.app/Contents/Resources/GoogleAppEngine-default.bundle/Contents/Resources/google_appengine/lib/webob/webob/multidict.py'
p274
(lp275
I264
aI265
aI267
aI268
aI269
aI26
aI29
aI286
aI421
aI38
aI295
aI296
aI299
aI46
aI50
aI51
aI52
aI317
aI442
aI443
aI444
aI61
aI62
aI64
aI65
aI68
aI69
aI80
aI81
aI84
aI90
aI96
aI97
aI98
aI99
aI100
aI39
aI445
asS'/private/var/folders/tY/tYk-BLGGGju0p1L+Vn3SHU+++TM/-Tmp-/tmpbSvrMy/zc.buildout-1.2.1-py2.5.egg/zc/buildout/buildout.py'
p276
(lp277
I17
aI19
aI20
aI21
aI22
aI23
aI24
aI25
aI26
aI27
aI28
aI29
aI30
aI31
aI33
aI34
aI35
aI37
aI39
aI40
aI45
aI47
aI48
aI50
aI52
aI54
aI57
aI59
aI61
aI63
aI65
aI68
aI69
aI70
aI71
aI72
aI73
aI74
aI75
aI76
aI77
aI80
aI83
aI85
aI87
aI90
aI91
aI93
aI94
aI95
aI96
aI109
aI110
aI115
aI116
aI117
aI118
aI119
aI120
aI123
aI124
aI127
aI134
aI135
aI136
aI140
aI147
aI148
aI149
aI150
aI151
aI153
aI154
aI156
aI157
aI158
aI159
aI161
aI162
aI163
aI171
aI174
aI175
aI177
aI178
aI179
aI181
aI185
aI186
aI187
aI189
aI190
aI191
aI193
aI195
aI196
aI198
aI199
aI201
aI204
aI205
aI207
aI208
aI210
aI211
aI214
aI215
aI218
aI220
aI221
aI224
aI225
aI227
aI228
aI231
aI232
aI234
aI235
aI236
aI237
aI243
aI244
aI247
aI249
aI250
aI258
aI259
aI267
aI268
aI270
aI272
aI273
aI275
aI277
aI278
aI280
aI283
aI284
aI285
aI286
aI287
aI293
aI294
aI295
aI296
aI303
aI304
aI305
aI306
aI307
aI309
aI311
aI509
aI517
aI537
aI538
aI541
aI542
aI543
aI547
aI596
aI605
aI616
aI638
aI661
aI677
aI688
aI691
aI692
aI693
aI694
aI695
aI696
aI699
aI700
aI701
aI702
aI703
aI705
aI706
aI708
aI709
aI710
aI716
aI717
aI718
aI722
aI723
aI724
aI726
aI806
aI834
aI872
aI874
aI875
aI876
aI877
aI878
aI879
aI881
aI882
aI886
aI887
aI888
aI889
aI891
aI894
aI897
aI900
aI904
aI942
aI944
aI945
aI946
aI947
aI948
aI949
aI951
aI952
aI953
aI956
aI957
aI960
aI961
aI975
aI981
aI982
aI983
aI984
aI985
aI987
aI988
aI989
aI990
aI991
aI993
aI995
aI1008
aI1009
aI1011
aI1012
aI1013
aI1014
aI1047
aI1048
aI1049
aI1050
aI1051
aI1053
aI1054
aI1056
aI1058
aI1059
aI1061
aI1063
aI1075
aI1079
aI1085
aI1105
aI1114
aI1122
aI1123
aI1124
aI1125
aI1126
aI1129
aI1143
aI1151
aI1158
aI1164
aI1167
aI1176
aI1177
aI1178
aI1180
aI1183
aI1185
aI1187
aI1188
aI1189
aI1190
aI1191
aI1192
aI1193
aI1194
aI1195
aI1196
aI1198
aI1204
aI1211
aI1212
aI1215
aI1216
aI1230
aI1240
aI1241
aI1242
aI1246
aI1252
aI1253
aI1255
aI1256
aI1257
aI1258
aI1260
aI1261
aI1263
aI1272
aI1289
aI1296
aI1298
aI1412
aI1413
aI1417
aI1418
aI1421
aI1422
aI1423
aI1424
aI1425
aI1426
aI1427
aI1428
aI1429
aI1430
aI1431
aI1454
aI1455
aI1456
aI1458
aI1459
aI1462
aI1463
aI1482
aI1491
aI1493
aI1496
aI1497
aI1498
aI1499
aI1505
aI1506
aI1507
aI1508
aI1509
aI1533
aI1535
asS'/Users/tobias/projects/appengine/bridal/trunk/demo/eggs/nose-0.11.1-py2.5.egg/nose/selector.py'
p278
(lp279
I129
aI130
aI131
aI132
aI133
aI134
aI135
aI140
aI141
aI144
aI148
aI149
aI152
aI153
aI154
aI156
aI157
aI116
aI35
aI37
aI241
aI40
aI41
aI42
aI43
aI44
aI45
aI53
aI54
aI57
aI187
aI188
aI191
aI192
aI193
aI194
aI228
aI196
aI197
aI97
aI96
aI98
aI99
aI105
aI89
aI90
aI91
aI222
aI224
aI225
aI226
aI227
aI100
aI229
aI232
aI233
aI234
aI235
aI236
aI237
aI238
aI239
aI240
aI104
aI244
aI117
aI118
aI119
aI120
aI121
aI122
aI123
aI126
aI127
asS'/Users/tobias/projects/appengine/bridal/trunk/demo/eggs/zope.interface-3.5.1-py2.5-macosx-10.3-i386.egg/zope/interface/interfaces.py'
p280
(lp281
I385
aI258
aI643
aI133
aI51
aI135
aI520
aI684
aI394
aI653
aI270
aI143
aI400
aI17
aI18
aI276
aI302
aI22
aI663
aI24
aI665
aI282
aI111
aI28
aI26
aI31
aI672
aI290
aI37
aI422
aI43
aI300
aI429
aI46
aI29
aI50
aI691
aI309
aI54
aI695
aI58
aI59
aI316
aI61
aI702
aI556
aI320
aI706
aI710
aI97
aI456
aI716
aI346
aI588
aI77
aI720
aI85
aI86
aI88
aI730
aI101
aI737
aI229
aI357
aI307
aI361
aI618
aI231
aI450
aI21
aI495
aI116
aI118
aI247
aI332
aI505
aI293
aI53
aI124
aI239
aI126
aI383
asS'/Users/tobias/projects/appengine/demo/eggs/nose-0.11.1-py2.5.egg/nose/plugins/cover.py'
p282
(lp283
I152
aI289
aI154
aI153
aI281
asS'/Users/tobias/projects/appengine/demo/eggs/zope.tales-3.4.0-py2.5.egg/zope/tales/tales.py'
p284
(lp285
I513
aI514
aI515
aI517
aI518
aI519
aI520
aI521
aI523
aI19
aI20
aI21
aI23
aI25
aI26
aI30
aI31
aI32
aI33
aI34
aI37
aI38
aI39
aI42
aI43
aI45
aI558
aI48
aI49
aI562
aI563
aI52
aI565
aI566
aI55
aI57
aI59
aI61
aI62
aI575
aI64
aI577
aI578
aI581
aI583
aI584
aI586
aI587
aI588
aI589
aI590
aI592
aI593
aI594
aI595
aI598
aI600
aI601
aI602
aI605
aI606
aI608
aI609
aI612
aI617
aI619
aI620
aI622
aI623
aI625
aI626
aI627
aI628
aI629
aI631
aI633
aI634
aI636
aI637
aI640
aI642
aI644
aI646
aI647
aI648
aI649
aI651
aI652
aI653
aI655
aI657
aI658
aI666
aI667
aI669
aI673
aI681
aI171
aI691
aI692
aI695
aI696
aI116
aI698
aI700
aI703
aI704
aI705
aI194
aI707
aI709
aI712
aI714
aI716
aI719
aI721
aI724
aI725
aI214
aI727
aI730
aI731
aI733
aI739
aI740
aI742
aI234
aI749
aI254
aI276
aI46
aI303
aI51
aI324
aI325
aI326
aI569
aI351
aI571
aI371
aI574
aI399
aI427
aI456
aI490
aI491
aI492
aI493
aI495
aI506
asS'/private/var/folders/tY/tYk-BLGGGju0p1L+Vn3SHU+++TM/-Tmp-/tmpqPMLS9/zc.buildout-1.2.1-py2.5.egg/zc/buildout/easy_install.py'
p286
(lp287
I1026
aI1028
aI1030
aI1031
aI1032
aI1035
aI1036
aI1037
aI1038
aI1039
aI1040
aI1041
aI1042
aI1044
aI21
aI1046
aI23
aI24
aI25
aI26
aI27
aI28
aI29
aI30
aI31
aI32
aI33
aI34
aI35
aI36
aI37
aI38
aI39
aI1064
aI41
aI42
aI1067
aI45
aI46
aI47
aI1073
aI50
aI52
aI54
aI55
aI57
aI1085
aI63
aI64
aI69
aI70
aI71
aI74
aI76
aI78
aI79
aI594
aI1120
aI100
aI102
aI615
aI106
aI107
aI113
aI114
aI628
aI1147
aI132
aI134
aI1160
aI1162
aI140
aI142
aI143
aI1169
aI146
aI148
aI149
aI150
aI151
aI152
aI153
aI154
aI1179
aI157
aI158
aI159
aI160
aI161
aI162
aI163
aI164
aI165
aI166
aI684
aI1197
aI1205
aI1206
aI1055
aI1212
aI202
aI750
aI756
aI757
aI758
aI1065
aI760
aI761
aI762
aI764
aI770
aI771
aI772
aI773
aI774
aI776
aI777
aI778
aI779
aI780
aI782
aI783
aI784
aI785
aI786
aI788
aI1070
aI795
aI796
aI797
aI798
aI291
aI806
aI807
aI808
aI299
aI815
aI822
aI838
aI839
aI1164
aI43
aI399
aI1088
aI906
aI910
aI911
aI912
aI913
aI914
aI915
aI918
aI919
aI920
aI922
aI924
aI928
aI931
aI932
aI933
aI934
aI935
aI936
aI937
aI938
aI939
aI940
aI1181
aI945
aI946
aI951
aI953
aI954
aI956
aI957
aI958
aI961
aI966
aI455
aI968
aI969
aI759
aI1186
aI979
aI980
aI981
aI984
aI473
aI996
aI1190
aI1009
asS'/Users/tobias/projects/appengine/demo/eggs/zope.pagetemplate-3.5.0-py2.5.egg/zope/pagetemplate/pagetemplate.py'
p288
(lp289
I128
aI64
aI132
aI134
aI140
aI141
aI145
aI147
aI20
aI21
aI22
aI23
aI24
aI25
aI27
aI29
aI30
aI33
aI34
aI36
aI167
aI169
aI171
aI172
aI61
aI175
aI180
aI181
aI182
aI183
aI184
aI59
aI189
aI190
aI63
aI192
aI65
aI66
aI67
aI68
aI69
aI19
aI199
aI200
aI201
aI75
aI204
aI77
aI207
aI84
aI71
aI93
aI94
aI96
aI97
aI99
aI100
aI102
aI103
aI105
aI196
aI107
aI108
aI111
aI112
aI113
aI114
aI115
aI116
aI118
aI191
aI106
asS'/Users/tobias/projects/appengine/demo/install.py'
p290
(lp291
I1
aI2
aI3
aI5
aI6
aI8
aI9
aI42
aI11
aI13
aI14
aI17
aI18
aI83
aI20
aI53
aI22
aI23
aI25
aI31
asS'/Users/tobias/projects/appengine/demo/eggs/zope.interface-3.5.1-py2.5-macosx-10.3-i386.egg/zope/interface/interface.py'
p292
(lp293
I514
aI518
aI520
aI523
aI525
aI526
aI528
aI17
aI530
aI531
aI533
aI22
aI23
aI24
aI25
aI26
aI802
aI29
aI30
aI31
aI33
aI546
aI35
aI554
aI43
aI556
aI559
aI264
aI562
aI51
aI565
aI58
aI61
aI62
aI63
aI65
aI66
aI579
aI69
aI73
aI77
aI269
aI81
aI85
aI598
aI89
aI602
aI93
aI95
aI611
aI623
aI19
aI771
aI124
aI21
aI642
aI645
aI789
aI163
aI261
aI165
aI167
aI168
aI682
aI172
aI687
aI693
aI695
aI697
aI799
aI190
aI704
aI707
aI801
aI712
aI201
aI203
aI205
aI206
aI719
aI770
aI722
aI211
aI213
aI730
aI293
aI744
aI745
aI746
aI747
aI748
aI210
aI750
aI751
aI752
aI754
aI755
aI297
aI760
aI762
aI763
aI252
aI298
aI766
aI255
aI256
aI769
aI258
aI259
aI260
aI773
aI263
aI776
aI777
aI266
aI267
aI268
aI781
aI783
aI786
aI275
aI277
aI278
aI281
aI282
aI795
aI796
aI285
aI798
aI287
aI289
aI290
aI804
aI805
aI806
aI809
aI810
aI811
aI300
aI302
aI303
aI304
aI305
aI306
aI308
aI309
aI310
aI283
aI313
aI315
aI318
aI319
aI322
aI130
aI356
aI779
aI401
aI402
aI67
aI404
aI424
aI425
aI432
aI433
aI435
aI436
aI438
aI439
aI440
aI441
aI443
aI447
aI451
aI453
aI454
aI455
aI456
aI457
aI458
aI460
aI461
aI463
aI465
aI466
aI470
aI471
aI474
aI478
aI479
aI480
aI481
aI482
aI483
aI484
aI764
aI490
aI492
aI494
aI170
aI511
asS'/Users/tobias/projects/appengine/bridal/trunk/demo/eggs/zope.tal-3.5.1-py2.5.egg/zope/tal/interfaces.py'
p294
(lp295
I133
aI140
aI158
aI146
aI19
aI22
aI152
aI28
aI30
aI34
aI165
aI172
aI45
aI51
aI181
aI185
aI59
aI66
aI195
aI197
aI198
aI200
aI201
aI74
aI203
aI204
aI206
aI207
aI82
aI86
aI57
aI90
aI96
aI187
aI100
aI104
aI18
aI113
aI127
asS'/private/var/folders/tY/tYk-BLGGGju0p1L+Vn3SHU+++TM/-Tmp-/tmphrxJOz/zc.buildout-1.2.1-py2.5.egg/zc/buildout/__init__.py'
p296
(lp297
I17
aI19
aI21
aI23
asS'/private/var/folders/tY/tYk-BLGGGju0p1L+Vn3SHU+++TM/-Tmp-/tmpuQQYJ1/zc.buildout-1.2.1-py2.5.egg/zc/buildout/buildout.py'
p298
(lp299
I517
aI17
aI19
aI20
aI21
aI22
aI1047
aI24
aI537
aI26
aI27
aI28
aI29
aI30
aI31
aI33
aI34
aI547
aI37
aI39
aI40
aI45
aI47
aI48
aI50
aI1075
aI52
aI54
aI1079
aI57
aI59
aI1085
aI63
aI65
aI68
aI69
aI70
aI71
aI72
aI73
aI74
aI75
aI76
aI77
aI80
aI1105
aI83
aI596
aI1114
aI605
aI1296
aI1122
aI1123
aI1124
aI1125
aI1126
aI616
aI1129
aI1143
aI638
aI1151
aI1158
aI23
aI661
aI25
aI677
aI1456
aI688
aI691
aI1215
aI1216
aI1058
aI1230
aI35
aI726
aI1240
aI1255
aI1063
aI1263
aI1454
aI1272
aI1289
aI1290
aI1291
aI272
aI1298
aI277
aI1412
aI806
aI309
aI311
aI834
aI872
aI874
aI61
aI891
aI894
aI897
aI900
aI1413
aI904
aI1417
aI1418
aI1421
aI1422
aI1423
aI1424
aI1425
aI1426
aI1427
aI1428
aI1429
aI1430
aI1431
aI942
aI1455
aI944
aI1458
aI1459
aI1462
aI1463
aI1478
aI1479
aI1481
aI975
aI981
aI951
aI1011
aI1012
aI1013
aI1014
aI509
aI1535
asS'/Users/tobias/projects/appengine/bridal/trunk/demo/eggs/nose-0.11.1-py2.5.egg/nose/tools.py'
p300
(lp301
I136
aI137
aI138
aI145
aI146
aI147
aI154
aI155
aI156
asS'/private/var/folders/tY/tYk-BLGGGju0p1L+Vn3SHU+++TM/-Tmp-/tmp8RpW-L/zc.buildout-1.2.1-py2.5.egg/zc/buildout/buildout.py'
p302
(lp303
I17
aI19
aI20
aI21
aI22
aI23
aI24
aI25
aI26
aI27
aI28
aI29
aI30
aI31
aI33
aI34
aI35
aI37
aI39
aI40
aI45
aI47
aI48
aI50
aI52
aI54
aI57
aI59
aI61
aI63
aI65
aI68
aI69
aI70
aI71
aI72
aI73
aI74
aI75
aI76
aI77
aI80
aI83
aI85
aI87
aI90
aI91
aI93
aI94
aI95
aI96
aI109
aI110
aI115
aI116
aI117
aI118
aI119
aI120
aI123
aI124
aI127
aI134
aI135
aI136
aI140
aI147
aI148
aI149
aI150
aI151
aI153
aI154
aI156
aI157
aI158
aI159
aI161
aI162
aI163
aI171
aI174
aI175
aI177
aI178
aI179
aI181
aI185
aI186
aI187
aI189
aI190
aI191
aI193
aI195
aI196
aI198
aI199
aI201
aI204
aI205
aI207
aI208
aI210
aI211
aI214
aI215
aI218
aI220
aI221
aI224
aI225
aI227
aI228
aI231
aI232
aI234
aI235
aI236
aI237
aI243
aI244
aI247
aI249
aI250
aI258
aI259
aI267
aI268
aI270
aI272
aI273
aI275
aI277
aI278
aI280
aI283
aI284
aI285
aI286
aI287
aI293
aI294
aI295
aI296
aI303
aI304
aI305
aI306
aI307
aI309
aI311
aI509
aI517
aI537
aI538
aI541
aI542
aI543
aI547
aI596
aI605
aI616
aI638
aI661
aI677
aI688
aI691
aI692
aI693
aI694
aI695
aI696
aI699
aI700
aI701
aI702
aI703
aI705
aI706
aI708
aI709
aI710
aI716
aI717
aI718
aI722
aI723
aI724
aI726
aI806
aI834
aI872
aI874
aI875
aI876
aI877
aI878
aI879
aI881
aI882
aI886
aI887
aI888
aI889
aI891
aI894
aI897
aI900
aI904
aI942
aI944
aI945
aI946
aI947
aI948
aI949
aI951
aI952
aI953
aI956
aI957
aI960
aI961
aI975
aI981
aI982
aI983
aI984
aI985
aI987
aI988
aI989
aI990
aI991
aI993
aI995
aI1008
aI1009
aI1011
aI1012
aI1013
aI1014
aI1047
aI1048
aI1049
aI1050
aI1051
aI1053
aI1054
aI1056
aI1058
aI1059
aI1061
aI1063
aI1075
aI1079
aI1085
aI1105
aI1114
aI1122
aI1123
aI1124
aI1125
aI1126
aI1129
aI1143
aI1151
aI1158
aI1164
aI1167
aI1176
aI1177
aI1178
aI1180
aI1183
aI1185
aI1187
aI1188
aI1189
aI1190
aI1191
aI1192
aI1193
aI1194
aI1195
aI1196
aI1198
aI1204
aI1211
aI1212
aI1215
aI1216
aI1230
aI1240
aI1241
aI1242
aI1246
aI1252
aI1253
aI1255
aI1256
aI1257
aI1258
aI1260
aI1261
aI1263
aI1272
aI1289
aI1296
aI1298
aI1412
aI1413
aI1417
aI1418
aI1421
aI1422
aI1423
aI1424
aI1425
aI1426
aI1427
aI1428
aI1429
aI1430
aI1431
aI1454
aI1455
aI1456
aI1458
aI1459
aI1462
aI1463
aI1482
aI1491
aI1493
aI1496
aI1497
aI1498
aI1499
aI1505
aI1506
aI1507
aI1508
aI1509
aI1533
aI1535
asS'/Applications/Utilities/GoogleAppEngineLauncher.app/Contents/Resources/GoogleAppEngine-default.bundle/Contents/Resources/google_appengine/google/appengine/api/images/__init__.py'
p304
(lp305
I692
aI516
aI648
aI523
aI396
aI143
aI272
aI530
aI155
aI29
aI69
aI288
aI33
aI35
aI36
aI37
aI167
aI40
aI41
aI43
aI812
aI45
aI46
aI47
aI48
aI49
aI50
aI51
aI436
aI53
aI55
aI56
aI52
aI59
aI572
aI61
aI64
aI65
aI451
aI68
aI325
aI198
aI72
aI73
aI76
aI77
aI80
aI81
aI675
aI84
aI85
aI57
aI88
aI89
aI91
aI351
aI616
aI108
aI365
aI119
aI632
aI378
aI251
aI597
asS'/Users/tobias/projects/appengine/bridal/trunk/demo/eggs/nose-0.11.1-py2.5.egg/nose/plugins/capture.py'
p306
(lp307
I98
aI99
aI68
aI73
aI74
aI75
aI108
aI109
aI79
aI57
aI58
aI93
aI94
aI95
asS'/Users/tobias/projects/appengine/demo/eggs/coverage-3.0b3-py2.5-macosx-10.3-i386.egg/coverage/collector.py'
p308
(lp309
I144
aI145
aI141
aI142
aI169
asS'/private/var/folders/tY/tYk-BLGGGju0p1L+Vn3SHU+++TM/-Tmp-/tmp6RKWAY/zc.buildout-1.2.1-py2.5.egg/zc/buildout/easy_install.py'
p310
(lp311
I1026
aI1028
aI1030
aI1031
aI1032
aI1035
aI1036
aI1037
aI1038
aI1039
aI1040
aI1041
aI1042
aI1044
aI21
aI1046
aI23
aI24
aI25
aI26
aI27
aI28
aI29
aI30
aI31
aI32
aI33
aI34
aI35
aI36
aI37
aI38
aI39
aI1064
aI41
aI42
aI1067
aI45
aI1070
aI47
aI1073
aI50
aI52
aI54
aI55
aI57
aI1085
aI63
aI64
aI69
aI70
aI71
aI74
aI76
aI78
aI79
aI594
aI1120
aI100
aI102
aI615
aI106
aI107
aI113
aI114
aI628
aI1147
aI132
aI134
aI1160
aI1162
aI140
aI142
aI143
aI1169
aI146
aI148
aI149
aI150
aI151
aI152
aI153
aI154
aI1179
aI157
aI158
aI159
aI160
aI161
aI162
aI163
aI164
aI165
aI166
aI684
aI1197
aI1205
aI1206
aI1055
aI1212
aI202
aI750
aI756
aI757
aI758
aI1065
aI760
aI761
aI762
aI764
aI770
aI771
aI772
aI773
aI774
aI776
aI777
aI778
aI779
aI780
aI782
aI783
aI784
aI785
aI786
aI788
aI46
aI795
aI796
aI797
aI798
aI291
aI806
aI807
aI808
aI299
aI815
aI822
aI838
aI839
aI1164
aI43
aI911
aI1088
aI906
aI910
aI399
aI912
aI913
aI914
aI915
aI918
aI919
aI920
aI922
aI924
aI928
aI931
aI932
aI933
aI934
aI935
aI936
aI937
aI938
aI939
aI940
aI1181
aI945
aI946
aI951
aI953
aI954
aI956
aI957
aI958
aI961
aI966
aI455
aI968
aI969
aI759
aI1186
aI979
aI980
aI981
aI984
aI473
aI996
aI1190
aI1009
asS'/Users/tobias/projects/appengine/bridal/trunk/demo/eggs/nose-0.11.1-py2.5.egg/nose/plugins/cover.py'
p312
(lp313
I152
aI289
aI154
aI153
aI281
asS'/private/var/folders/tY/tYk-BLGGGju0p1L+Vn3SHU+++TM/-Tmp-/tmp6RKWAY/zc.buildout-1.2.1-py2.5.egg/zc/__init__.py'
p314
(lp315
I1
aI2
asS'/Applications/Utilities/GoogleAppEngineLauncher.app/Contents/Resources/GoogleAppEngine-default.bundle/Contents/Resources/google_appengine/google/appengine/tools/dev_appserver.py'
p316
(lp317
I3082
aI3083
aI3085
aI3086
aI3001
aI3094
aI3095
aI3097
aI3098
aI3101
aI3105
aI3106
aI3107
aI3108
aI3110
aI3112
aI3117
aI2314
aI591
aI592
aI593
aI594
aI2133
aI2134
aI2135
aI2136
aI2137
aI2138
aI3171
aI3172
aI3173
aI3174
aI3175
aI3176
aI3177
aI3178
aI3179
aI3180
aI3181
aI3182
aI3183
aI3185
aI3187
aI3188
aI3189
aI3190
aI3191
aI3192
aI3196
aI3198
aI3199
aI3200
aI3201
aI3203
aI3204
aI3205
aI3206
aI3208
aI3209
aI3210
aI3211
aI3213
aI3214
aI3215
aI3217
aI3218
aI3219
aI3220
aI3221
aI3222
aI3223
aI3224
aI3226
aI3227
aI3228
aI3230
aI3231
aI3232
aI3235
aI3236
aI3240
aI3241
aI3242
aI3243
aI3244
aI3245
aI2228
aI731
aI732
aI733
aI735
aI1126
aI738
aI3025
aI2280
aI2281
aI2285
aI2287
aI2288
aI2289
aI754
aI755
aI244
aI757
aI759
aI2296
aI761
aI763
aI764
aI2301
aI766
aI767
aI769
aI2307
aI2309
aI2310
aI266
aI269
aI272
aI274
aI275
aI279
aI280
aI736
aI1372
aI1373
aI1374
aI1375
aI1376
aI1377
aI2297
aI2414
aI2415
aI2416
aI887
aI888
aI889
aI890
aI891
aI893
aI895
aI2955
aI2956
aI2960
aI2961
aI2963
aI919
aI920
aI934
aI935
aI2290
aI2291
aI2997
aI2998
aI2999
aI3000
aI756
aI3002
aI3003
aI3004
aI3006
aI2293
aI3008
aI3009
aI3010
aI3012
aI3013
aI3014
aI3015
aI3016
aI3020
aI3021
aI3022
aI3023
aI760
aI3027
aI3028
aI3031
aI3033
aI3035
aI3036
aI3037
aI3038
aI3040
aI2299
aI2302
asS'/Users/tobias/projects/appengine/bridal/trunk/demo/src/demo/tests/__init__.py'
p318
(lp319
I35
aI22
aI38
aI49
aI31
aI42
aI45
aI46
aI15
aI17
aI18
aI19
aI20
aI53
aI54
aI55
aI24
aI27
aI21
asS'/Users/tobias/projects/appengine/bridal/trunk/demo/eggs/zope.interface-3.5.1-py2.5-macosx-10.3-i386.egg/zope/interface/ro.py'
p320
(lp321
I17
aI18
aI21
aI24
aI26
aI45
aI46
aI47
aI48
aI49
aI50
aI51
aI52
aI53
aI54
aI55
aI57
aI58
aI60
aI61
aI62
aI63
aI64
aI70
aI71
asS'/private/var/folders/tY/tYk-BLGGGju0p1L+Vn3SHU+++TM/-Tmp-/tmpuQQYJ1/zc.buildout-1.2.1-py2.5.egg/zc/buildout/easy_install.py'
p322
(lp323
I1026
aI1028
aI21
aI23
aI24
aI25
aI26
aI27
aI28
aI29
aI30
aI31
aI32
aI33
aI34
aI35
aI36
aI37
aI38
aI39
aI41
aI42
aI1067
aI45
aI1070
aI47
aI1073
aI50
aI52
aI54
aI55
aI57
aI1085
aI63
aI1088
aI69
aI70
aI71
aI74
aI76
aI78
aI79
aI594
aI1120
aI100
aI102
aI615
aI106
aI107
aI113
aI114
aI628
aI1147
aI132
aI134
aI1160
aI1162
aI1164
aI142
aI143
aI1169
aI146
aI148
aI149
aI150
aI151
aI152
aI153
aI154
aI1179
aI1181
aI158
aI159
aI160
aI161
aI162
aI163
aI164
aI165
aI1190
aI684
aI1197
aI1205
aI1206
aI1212
aI202
aI750
aI756
aI764
aI770
aI776
aI782
aI788
aI46
aI795
aI796
aI797
aI798
aI291
aI806
aI807
aI808
aI299
aI815
aI822
aI838
aI839
aI140
aI911
aI64
aI906
aI910
aI399
aI912
aI913
aI914
aI915
aI157
aI455
aI968
aI1186
aI984
aI473
aI996
aI166
aI1009
asS'/Users/tobias/projects/appengine/bridal/trunk/demo/src/demo/interfaces.py'
p324
(lp325
I35
aI36
aI38
aI15
aI17
aI20
aI21
aI24
aI25
aI28
aI29
aI31
asS'/private/var/folders/tY/tYk-BLGGGju0p1L+Vn3SHU+++TM/-Tmp-/tmpOlOJYi/zc.buildout-1.2.1-py2.5.egg/zc/__init__.py'
p326
(lp327
I1
aI2
asS'/private/var/folders/tY/tYk-BLGGGju0p1L+Vn3SHU+++TM/-Tmp-/tmpWPFu1Z/zc.buildout-1.2.1-py2.5.egg/zc/buildout/buildout.py'
p328
(lp329
I17
aI19
aI20
aI21
aI22
aI23
aI24
aI25
aI26
aI27
aI28
aI29
aI30
aI31
aI33
aI34
aI35
aI37
aI39
aI40
aI45
aI47
aI48
aI50
aI52
aI54
aI57
aI59
aI61
aI63
aI65
aI68
aI69
aI70
aI71
aI72
aI73
aI74
aI75
aI76
aI77
aI80
aI83
aI85
aI87
aI90
aI91
aI93
aI94
aI95
aI96
aI109
aI110
aI115
aI116
aI117
aI118
aI119
aI120
aI123
aI124
aI127
aI134
aI135
aI136
aI140
aI147
aI148
aI149
aI150
aI151
aI153
aI154
aI156
aI157
aI158
aI159
aI161
aI162
aI163
aI171
aI174
aI175
aI177
aI178
aI179
aI181
aI185
aI186
aI187
aI189
aI190
aI191
aI193
aI195
aI196
aI198
aI199
aI201
aI204
aI205
aI207
aI208
aI210
aI211
aI214
aI215
aI218
aI220
aI221
aI224
aI225
aI227
aI228
aI231
aI232
aI234
aI235
aI236
aI237
aI243
aI244
aI247
aI249
aI250
aI258
aI259
aI267
aI268
aI270
aI272
aI273
aI275
aI277
aI278
aI280
aI283
aI284
aI285
aI286
aI287
aI293
aI294
aI295
aI296
aI303
aI304
aI305
aI306
aI307
aI309
aI311
aI509
aI517
aI537
aI538
aI541
aI542
aI543
aI547
aI596
aI605
aI616
aI638
aI661
aI677
aI688
aI691
aI692
aI693
aI694
aI695
aI696
aI699
aI700
aI701
aI702
aI703
aI705
aI706
aI708
aI709
aI710
aI716
aI717
aI718
aI722
aI723
aI724
aI726
aI806
aI834
aI872
aI874
aI875
aI876
aI877
aI878
aI879
aI881
aI882
aI886
aI887
aI888
aI889
aI891
aI894
aI897
aI900
aI904
aI942
aI944
aI945
aI946
aI947
aI948
aI949
aI951
aI952
aI953
aI956
aI957
aI960
aI961
aI975
aI981
aI982
aI983
aI984
aI985
aI987
aI988
aI989
aI990
aI991
aI993
aI995
aI1008
aI1009
aI1011
aI1012
aI1013
aI1014
aI1047
aI1048
aI1049
aI1050
aI1051
aI1053
aI1054
aI1056
aI1058
aI1059
aI1061
aI1063
aI1075
aI1079
aI1085
aI1105
aI1114
aI1122
aI1123
aI1124
aI1125
aI1126
aI1129
aI1143
aI1151
aI1158
aI1164
aI1167
aI1176
aI1177
aI1178
aI1180
aI1183
aI1185
aI1187
aI1188
aI1189
aI1190
aI1191
aI1192
aI1193
aI1194
aI1195
aI1196
aI1198
aI1204
aI1211
aI1212
aI1215
aI1216
aI1230
aI1240
aI1241
aI1242
aI1246
aI1252
aI1253
aI1255
aI1256
aI1257
aI1258
aI1260
aI1261
aI1263
aI1272
aI1289
aI1296
aI1298
aI1412
aI1413
aI1417
aI1418
aI1421
aI1422
aI1423
aI1424
aI1425
aI1426
aI1427
aI1428
aI1429
aI1430
aI1431
aI1454
aI1455
aI1456
aI1458
aI1459
aI1462
aI1463
aI1482
aI1491
aI1493
aI1496
aI1497
aI1498
aI1499
aI1505
aI1506
aI1507
aI1508
aI1509
aI1533
aI1535
asS'/Users/tobias/projects/appengine/demo/eggs/nose-0.11.1-py2.5.egg/nose/suite.py'
p330
(lp331
I512
aI513
aI514
aI515
aI516
aI517
aI518
aI521
aI522
aI524
aI533
aI534
aI537
aI45
aI60
aI63
aI64
aI65
aI66
aI67
aI68
aI69
aI70
aI71
aI72
aI78
aI79
aI80
aI81
aI82
aI83
aI84
aI87
aI88
aI89
aI90
aI91
aI97
aI98
aI132
aI133
aI134
aI135
aI137
aI138
aI139
aI140
aI141
aI150
aI154
aI178
aI179
aI182
aI183
aI189
aI190
aI191
aI197
aI199
aI200
aI201
aI241
aI242
aI244
aI245
aI246
aI249
aI250
aI251
aI254
aI255
aI257
aI258
aI259
aI260
aI261
aI262
aI263
aI264
aI265
aI269
aI270
aI273
aI274
aI275
aI276
aI280
aI281
aI282
aI284
aI285
aI286
aI287
aI295
aI296
aI297
aI298
aI299
aI300
aI301
aI302
aI303
aI309
aI310
aI311
aI312
aI313
aI314
aI317
aI318
aI319
aI320
aI321
aI322
aI323
aI328
aI329
aI330
aI332
aI333
aI334
aI336
aI337
aI338
aI339
aI340
aI344
aI345
aI346
aI348
aI349
aI350
aI366
aI368
aI369
aI373
aI374
aI375
aI376
aI377
aI378
aI379
aI390
aI391
aI392
aI393
aI394
aI395
aI396
aI399
aI407
aI408
aI413
aI415
aI416
aI417
aI418
aI421
aI422
aI423
aI424
aI427
aI428
aI429
aI430
aI432
aI433
aI434
aI435
aI436
aI441
aI444
aI445
aI446
aI447
aI448
aI449
aI450
aI451
aI452
aI453
aI454
aI455
aI456
aI509
aI510
aI511
asS'/Users/tobias/projects/appengine/demo/eggs/zope.tales-3.4.0-py2.5.egg/zope/tales/engine.py'
p332
(lp333
I32
aI33
aI34
aI35
aI37
aI19
aI20
aI21
aI22
aI23
aI25
aI26
aI27
aI28
aI29
aI30
aI31
asS'/Users/tobias/projects/appengine/demo/eggs/zope.tal-3.5.1-py2.5.egg/zope/tal/talgenerator.py'
p334
(lp335
I512
aI513
aI514
aI515
aI516
aI517
aI518
aI519
aI520
aI521
aI522
aI526
aI527
aI528
aI17
aI18
aI19
aI21
aI22
aI23
aI24
aI25
aI539
aI28
aI30
aI32
aI33
aI34
aI547
aI36
aI37
aI40
aI41
aI43
aI558
aI47
aI51
aI52
aI54
aI55
aI56
aI569
aI570
aI59
aI62
aI63
aI65
aI66
aI67
aI68
aI581
aI70
aI71
aI584
aI585
aI74
aI75
aI76
aI77
aI78
aI79
aI80
aI81
aI82
aI83
aI596
aI85
aI86
aI87
aI88
aI89
aI90
aI91
aI92
aI93
aI471
aI609
aI98
aI99
aI105
aI106
aI107
aI108
aI530
aI110
aI701
aI113
aI114
aI115
aI116
aI629
aI118
aI119
aI120
aI122
aI641
aI644
aI601
aI705
aI802
aI535
aI652
aI653
aI109
aI144
aI658
aI147
aI148
aI149
aI150
aI151
aI152
aI153
aI154
aI155
aI156
aI669
aI158
aI709
aI672
aI673
aI162
aI163
aI165
aI166
aI167
aI168
aI170
aI171
aI172
aI626
aI174
aI175
aI176
aI177
aI178
aI179
aI180
aI181
aI182
aI183
aI184
aI185
aI186
aI699
aI188
aI189
aI702
aI191
aI704
aI193
aI194
aI707
aI196
aI197
aI711
aI200
aI713
aI631
aI716
aI717
aI718
aI719
aI208
aI632
aI722
aI723
aI212
aI206
aI726
aI727
aI706
aI729
aI730
aI207
aI732
aI733
aI734
aI735
aI224
aI225
aI738
aI227
aI228
aI741
aI742
aI721
aI744
aI745
aI234
aI747
aI210
aI239
aI241
aI242
aI211
aI244
aI757
aI248
aI249
aI762
aI251
aI253
aI254
aI725
aI256
aI213
aI259
aI775
aI778
aI215
aI780
aI785
aI274
aI787
aI788
aI790
aI792
aI794
aI796
aI797
aI798
aI231
aI290
aI731
aI804
aI806
aI295
aI647
aI813
aI305
aI306
aI563
aI308
aI309
aI822
aI312
aI564
aI315
aI736
aI310
aI326
aI737
aI330
aI567
aI848
aI338
aI739
aI855
aI740
aI348
aI58
aI199
aI229
aI708
aI97
aI779
aI361
aI743
aI146
aI367
aI232
aI375
aI715
aI700
aI383
aI235
aI698
aI625
aI57
aI396
aI493
aI664
aI627
aI173
aI201
aI418
aI667
aI628
aI313
aI243
aI670
aI219
aI73
aI442
aI671
aI190
aI72
aI449
aI450
aI161
aI465
aI466
aI468
aI469
aI470
aI761
aI472
aI473
aI477
aI478
aI479
aI483
aI484
aI485
aI307
aI487
aI488
aI490
aI630
aI765
aI500
aI187
aI84
aI507
aI508
aI509
aI510
aI511
asS'/Applications/Utilities/GoogleAppEngineLauncher.app/Contents/Resources/GoogleAppEngine-default.bundle/Contents/Resources/google_appengine/google/appengine/api/apiproxy_stub_map.py'
p336
(lp337
I240
aI68
aI237
aI238
aI239
aI208
aI241
aI205
aI85
aI206
aI87
aI185
aI186
aI187
aI188
aI158
aI223
asS'/private/var/folders/tY/tYk-BLGGGju0p1L+Vn3SHU+++TM/-Tmp-/tmptSkiSH/zc.buildout-1.2.1-py2.5.egg/zc/__init__.py'
p338
(lp339
I1
aI2
asS'/private/var/folders/tY/tYk-BLGGGju0p1L+Vn3SHU+++TM/-Tmp-/tmpym6itQ/zc.buildout-1.2.1-py2.5.egg/zc/__init__.py'
p340
(lp341
I1
aI2
asS'/Applications/Utilities/GoogleAppEngineLauncher.app/Contents/Resources/GoogleAppEngine-default.bundle/Contents/Resources/google_appengine/google/appengine/api/validation.py'
p342
(lp343
I642
aI643
aI648
aI139
aI144
aI145
aI147
aI660
aI661
aI921
aI917
aI665
aI922
aI363
aI668
aI926
aI160
aI546
aI548
aI549
aI552
aI173
aI816
aI817
aI442
aI443
aI444
aI445
aI193
aI194
aI195
aI456
aI598
aI599
aI600
aI220
aI221
aI222
aI96
aI97
aI98
aI100
aI102
aI359
aI103
aI637
aI638
aI639
asS'/private/var/folders/tY/tYk-BLGGGju0p1L+Vn3SHU+++TM/-Tmp-/tmpg40IKD/zc.buildout-1.2.1-py2.5.egg/zc/__init__.py'
p344
(lp345
I1
aI2
asS'/Users/tobias/projects/appengine/demo/depends.py'
p346
(lp347
I1
aI2
aI3
aI4
aI165
aI70
aI7
aI42
aI75
aI13
aI206
aI240
aI11
aI10
aI83
aI14
aI36
aI124
aI29
asS'/Users/tobias/projects/appengine/demo/eggs/zope.tales-3.4.0-py2.5.egg/zope/tales/pythonexpr.py'
p348
(lp349
I64
aI34
aI68
aI69
aI70
aI75
aI17
aI19
aI20
aI56
aI61
aI31
asS'/Users/tobias/projects/appengine/demo/src/demo/pagetemplate.py'
p350
(lp351
I1
aI3
aI6
aI7
aI9
aI12
aI13
aI14
aI15
aI17
aI18
aI19
aI20
aI21
aI22
aI23
aI24
aI25
aI26
aI27
aI28
aI29
aI30
aI31
aI32
aI33
aI34
aI35
aI36
aI37
aI38
aI39
aI40
aI41
aI42
aI44
aI45
aI46
aI47
asS'/private/var/folders/tY/tYk-BLGGGju0p1L+Vn3SHU+++TM/-Tmp-/tmpuQQYJ1/zc.buildout-1.2.1-py2.5.egg/zc/__init__.py'
p352
(lp353
I1
aI2
asS'/private/var/folders/tY/tYk-BLGGGju0p1L+Vn3SHU+++TM/-Tmp-/tmpZHHBGu/zc.buildout-1.2.1-py2.5.egg/zc/buildout/easy_install.py'
p354
(lp355
I1026
aI1028
aI1030
aI1031
aI1032
aI1035
aI1036
aI1037
aI1038
aI1039
aI1040
aI1041
aI1042
aI1044
aI21
aI1046
aI23
aI24
aI25
aI26
aI27
aI28
aI29
aI30
aI31
aI32
aI33
aI34
aI35
aI36
aI37
aI38
aI39
aI1064
aI41
aI42
aI1067
aI45
aI46
aI47
aI1073
aI50
aI52
aI54
aI55
aI57
aI1085
aI63
aI64
aI69
aI70
aI71
aI74
aI76
aI78
aI79
aI594
aI1120
aI100
aI102
aI615
aI106
aI107
aI113
aI114
aI628
aI1147
aI132
aI134
aI1160
aI1162
aI1164
aI142
aI143
aI1169
aI146
aI148
aI149
aI150
aI151
aI152
aI153
aI154
aI1179
aI157
aI158
aI159
aI160
aI161
aI162
aI163
aI164
aI165
aI166
aI684
aI1197
aI1205
aI1206
aI1055
aI1212
aI202
aI750
aI756
aI757
aI758
aI1065
aI760
aI761
aI762
aI764
aI770
aI771
aI772
aI773
aI774
aI776
aI777
aI778
aI779
aI780
aI782
aI783
aI784
aI785
aI786
aI788
aI1070
aI795
aI796
aI797
aI798
aI291
aI806
aI807
aI808
aI299
aI815
aI822
aI838
aI839
aI140
aI43
aI911
aI1088
aI906
aI910
aI399
aI912
aI913
aI914
aI915
aI918
aI919
aI920
aI922
aI924
aI928
aI931
aI932
aI933
aI934
aI935
aI936
aI937
aI938
aI939
aI940
aI1181
aI945
aI946
aI951
aI953
aI954
aI956
aI957
aI958
aI961
aI966
aI455
aI968
aI969
aI759
aI1186
aI979
aI980
aI981
aI984
aI473
aI996
aI1190
aI1009
asS'/Users/tobias/projects/appengine/demo/eggs/nose-0.11.1-py2.5.egg/nose/plugins/errorclass.py'
p356
(lp357
I134
aI135
aI137
aI138
aI142
aI144
aI145
aI146
aI147
aI148
asS'/Applications/Utilities/GoogleAppEngineLauncher.app/Contents/Resources/GoogleAppEngine-default.bundle/Contents/Resources/google_appengine/google/appengine/dist/py_zipimport.py'
p358
(lp359
I132
aI133
aI134
aI135
aI136
aI137
aI138
aI139
aI140
aI142
aI143
aI144
aI145
aI218
aI164
aI165
aI166
aI167
aI168
aI169
aI181
aI182
aI183
aI184
aI186
aI202
aI203
aI204
aI205
aI206
aI207
aI208
aI209
aI82
aI211
aI84
aI213
aI86
aI87
aI88
aI89
aI90
aI91
aI92
aI93
aI94
aI95
aI96
aI81
aI210
aI83
aI212
aI85
asS'/Applications/Utilities/GoogleAppEngineLauncher.app/Contents/Resources/GoogleAppEngine-default.bundle/Contents/Resources/google_appengine/lib/yaml/lib/yaml/scanner.py'
p360
(lp361
I512
aI513
aI514
aI515
aI307
aI273
aI772
aI274
aI548
aI551
aI552
aI41
aI42
aI43
aI44
aI558
aI559
aI560
aI561
aI564
aI1289
aI60
aI1290
aI181
aI64
aI67
aI70
aI73
aI76
aI79
aI596
aI270
aI598
aI599
aI271
aI272
aI101
aI1297
aI109
aI115
aI116
aI117
aI118
aI120
aI121
aI122
aI123
aI127
aI129
aI130
aI134
aI136
aI137
aI138
aI143
aI144
aI145
aI146
aI149
aI150
aI151
aI156
aI671
aI163
aI676
aI166
aI679
aI169
aI170
aI173
aI1309
aI177
aI693
aI694
aI701
aI191
aI195
aI709
aI199
aI203
aI207
aI211
aI724
aI215
aI729
aI219
aI220
aI223
aI227
aI231
aI745
aI746
aI39
aI239
aI40
aI243
aI553
aI212
aI251
aI252
aI554
aI1281
aI1282
aI1283
aI1284
aI774
aI775
aI776
aI777
aI778
aI1291
aI1292
aI781
aI1294
aI1295
aI1296
aI785
aI1298
aI1299
aI1300
aI1301
aI1303
aI283
aI284
aI285
aI286
aI1311
aI1312
aI1313
aI1314
aI1315
aI1316
aI1317
aI1318
aI1319
aI1320
aI298
aI306
aI302
aI1327
aI1328
aI1330
aI1331
aI308
aI309
aI310
aI1335
aI1336
aI1332
aI315
aI1340
aI1341
aI1342
aI1333
aI1345
aI1346
aI1347
aI1334
aI1350
aI1352
aI1353
aI1354
aI311
aI1357
aI341
aI1337
aI345
aI346
aI347
aI348
aI352
aI353
aI354
aI355
aI356
aI365
aI368
aI369
aI375
aI378
aI379
aI382
aI385
aI235
aI388
aI1343
aI1326
aI269
aI1439
aI1440
aI1441
aI1444
aI1445
aI1446
aI1449
aI159
aI782
aI1355
aI247
aI783
aI487
aI490
aI496
aI506
aI509
aI597
asS'/Users/tobias/projects/appengine/bridal/trunk/demo/eggs/nose-0.11.1-py2.5.egg/nose/loader.py'
p362
(lp363
I512
aI522
aI523
aI525
aI528
aI75
aI77
aI78
aI79
aI80
aI81
aI82
aI85
aI86
aI87
aI88
aI89
aI90
aI91
aI92
aI124
aI125
aI126
aI127
aI128
aI130
aI131
aI132
aI135
aI136
aI137
aI138
aI139
aI140
aI141
aI142
aI144
aI145
aI148
aI150
aI151
aI152
aI153
aI154
aI155
aI156
aI157
aI160
aI161
aI164
aI165
aI168
aI169
aI170
aI171
aI174
aI175
aI183
aI184
aI185
aI286
aI287
aI288
aI289
aI293
aI294
aI295
aI297
aI300
aI301
aI302
aI303
aI304
aI305
aI310
aI311
aI312
aI313
aI314
aI315
aI316
aI318
aI321
aI331
aI333
aI336
aI337
aI340
aI341
aI365
aI366
aI367
aI370
aI371
aI377
aI378
aI379
aI381
aI382
aI383
aI385
aI386
aI387
aI388
aI389
aI392
aI393
aI394
aI395
aI396
aI397
aI408
aI415
aI416
aI434
aI435
aI436
aI437
aI442
aI484
aI485
aI486
aI491
aI494
aI495
aI503
aI505
asS'/private/var/folders/tY/tYk-BLGGGju0p1L+Vn3SHU+++TM/-Tmp-/tmpUOY8un/zc.buildout-1.2.1-py2.5.egg/zc/buildout/rmtree.py'
p364
(lp365
I65
aI16
aI17
aI18
aI20
aI62
asS'/private/var/folders/tY/tYk-BLGGGju0p1L+Vn3SHU+++TM/-Tmp-/tmpWPFu1Z/zc.buildout-1.2.1-py2.5.egg/zc/buildout/rmtree.py'
p366
(lp367
I65
aI16
aI17
aI18
aI20
aI62
asS'/Users/tobias/projects/appengine/bridal/trunk/demo/eggs/zope.interface-3.5.1-py2.5-macosx-10.3-i386.egg/zope/interface/advice.py'
p368
(lp369
I129
aI132
aI135
aI136
aI139
aI142
aI147
aI150
aI152
aI47
aI28
aI157
aI30
aI159
aI33
aI39
aI40
aI42
aI43
aI44
aI46
aI175
aI49
aI51
aI53
aI56
aI58
aI31
aI66
aI69
aI93
aI94
aI59
aI104
aI105
aI108
aI110
aI111
aI113
aI114
aI116
asS'/private/var/folders/tY/tYk-BLGGGju0p1L+Vn3SHU+++TM/-Tmp-/tmpym6itQ/zc.buildout-1.2.1-py2.5.egg/zc/buildout/buildout.py'
p370
(lp371
I17
aI19
aI20
aI21
aI22
aI23
aI24
aI25
aI26
aI27
aI28
aI29
aI30
aI31
aI33
aI34
aI35
aI37
aI39
aI40
aI45
aI47
aI48
aI50
aI52
aI54
aI57
aI59
aI61
aI63
aI65
aI68
aI69
aI70
aI71
aI72
aI73
aI74
aI75
aI76
aI77
aI80
aI83
aI85
aI87
aI90
aI91
aI93
aI94
aI95
aI96
aI109
aI110
aI115
aI116
aI117
aI118
aI119
aI120
aI123
aI124
aI127
aI134
aI135
aI136
aI140
aI147
aI148
aI149
aI150
aI151
aI153
aI154
aI156
aI157
aI158
aI159
aI161
aI162
aI163
aI171
aI174
aI175
aI177
aI178
aI179
aI181
aI185
aI186
aI187
aI189
aI190
aI191
aI193
aI195
aI196
aI198
aI199
aI201
aI204
aI205
aI207
aI208
aI210
aI211
aI214
aI215
aI218
aI220
aI221
aI224
aI225
aI227
aI228
aI231
aI232
aI234
aI235
aI236
aI237
aI243
aI244
aI247
aI249
aI250
aI258
aI259
aI267
aI268
aI270
aI272
aI273
aI275
aI277
aI278
aI280
aI283
aI284
aI285
aI286
aI287
aI293
aI294
aI295
aI296
aI303
aI304
aI305
aI306
aI307
aI309
aI311
aI509
aI517
aI537
aI538
aI541
aI542
aI543
aI547
aI596
aI605
aI616
aI638
aI661
aI677
aI688
aI691
aI692
aI693
aI694
aI695
aI696
aI699
aI700
aI701
aI702
aI703
aI705
aI706
aI708
aI709
aI710
aI716
aI717
aI718
aI722
aI723
aI724
aI726
aI806
aI834
aI872
aI874
aI875
aI876
aI877
aI878
aI879
aI881
aI882
aI886
aI887
aI888
aI889
aI891
aI894
aI897
aI900
aI904
aI942
aI944
aI945
aI946
aI947
aI948
aI949
aI951
aI952
aI953
aI956
aI957
aI960
aI961
aI975
aI981
aI982
aI983
aI984
aI985
aI987
aI988
aI989
aI990
aI991
aI993
aI995
aI1008
aI1009
aI1011
aI1012
aI1013
aI1014
aI1047
aI1048
aI1049
aI1050
aI1051
aI1053
aI1054
aI1056
aI1058
aI1059
aI1061
aI1063
aI1075
aI1079
aI1085
aI1105
aI1114
aI1122
aI1123
aI1124
aI1125
aI1126
aI1129
aI1143
aI1151
aI1158
aI1164
aI1167
aI1176
aI1177
aI1178
aI1180
aI1183
aI1185
aI1187
aI1188
aI1189
aI1190
aI1191
aI1192
aI1193
aI1194
aI1195
aI1196
aI1198
aI1204
aI1211
aI1212
aI1215
aI1216
aI1230
aI1240
aI1241
aI1242
aI1246
aI1252
aI1253
aI1255
aI1256
aI1257
aI1258
aI1260
aI1261
aI1263
aI1272
aI1289
aI1296
aI1298
aI1412
aI1413
aI1417
aI1418
aI1421
aI1422
aI1423
aI1424
aI1425
aI1426
aI1427
aI1428
aI1429
aI1430
aI1431
aI1454
aI1455
aI1456
aI1458
aI1459
aI1462
aI1463
aI1482
aI1491
aI1493
aI1496
aI1497
aI1498
aI1499
aI1505
aI1506
aI1507
aI1508
aI1509
aI1533
aI1535
asS'/Users/tobias/projects/appengine/bridal/trunk/demo/eggs/zope.component-3.7.0-py2.5.egg/zope/component/interfaces.py'
p372
(lp373
I513
aI515
aI517
aI519
aI520
aI521
aI523
aI525
aI527
aI17
aI18
aI20
aI21
aI22
aI24
aI25
aI27
aI28
aI541
aI30
aI31
aI545
aI34
aI547
aI549
aI39
aI553
aI44
aI45
aI558
aI47
aI560
aI561
aI50
aI563
aI565
aI54
aI568
aI57
aI571
aI573
aI575
aI576
aI578
aI580
aI582
aI584
aI585
aI587
aI77
aI591
aI85
aI92
aI100
aI529
aI617
aI106
aI112
aI124
aI125
aI534
aI648
aI364
aI138
aI655
aI656
aI536
aI161
aI162
aI539
aI179
aI692
aI693
aI543
aI193
aI216
aI217
aI218
aI735
aI742
aI743
aI551
aI41
aI249
aI264
aI783
aI784
aI274
aI284
aI48
aI180
aI297
aI305
aI310
aI315
aI317
aI318
aI831
aI320
aI321
aI323
aI566
aI838
aI329
aI336
aI342
aI349
aI356
aI876
aI370
aI376
aI382
aI64
aI235
aI391
aI398
aI400
aI915
aI923
aI925
aI416
aI436
aI456
aI589
aI473
aI475
aI477
aI481
aI482
aI484
aI486
aI488
aI492
aI500
aI502
aI504
aI506
aI508
asS'/Users/tobias/projects/appengine/demo/eggs/nose-0.11.1-py2.5.egg/nose/tools.py'
p374
(lp375
I136
aI137
aI138
aI145
aI146
aI147
aI154
aI155
aI156
asS'/private/var/folders/tY/tYk-BLGGGju0p1L+Vn3SHU+++TM/-Tmp-/tmptSkiSH/zc.buildout-1.2.1-py2.5.egg/zc/buildout/__init__.py'
p376
(lp377
I17
aI19
aI21
aI23
asS'/Users/tobias/projects/appengine/bridal/trunk/demo/extension.py'
p378
(lp379
I32
aI33
aI2
aI3
aI5
aI6
aI1
aI8
aI7
aI13
aI14
aI16
aI34
aI18
aI28
aI29
aI31
asS'/Users/tobias/projects/appengine/demo/eggs/zope.component-3.7.0-py2.5.egg/zope/component/hookable.py'
p380
(lp381
I32
aI33
aI15
aI16
aI17
aI19
aI20
aI22
aI23
aI25
aI29
asS'/Users/tobias/projects/appengine/bridal/trunk/demo/eggs/zope.i18nmessageid-3.4.3-py2.5-macosx-10.3-i386.egg/zope/i18nmessageid/__init__.py'
p382
(lp383
I17
aI18
aI21
asS'/private/var/folders/tY/tYk-BLGGGju0p1L+Vn3SHU+++TM/-Tmp-/tmp8RpW-L/zc.buildout-1.2.1-py2.5.egg/zc/__init__.py'
p384
(lp385
I1
aI2
asS'/Users/tobias/projects/appengine/bridal/trunk/demo/eggs/zope.tal-3.5.1-py2.5.egg/zope/tal/talparser.py'
p386
(lp387
I128
aI141
aI17
aI18
aI19
aI20
aI23
aI25
aI27
aI36
aI39
aI44
aI47
aI65
aI89
aI90
aI91
aI92
aI95
aI110
aI121
aI125
asS'/Users/tobias/projects/appengine/bridal/trunk/demo/eggs/nose-0.11.1-py2.5.egg/nose/util.py'
p388
(lp389
I517
aI518
aI519
aI521
aI535
aI537
aI539
aI541
aI542
aI544
aI545
aI144
aI660
aI661
aI160
aI167
aI168
aI169
aI170
aI171
aI180
aI181
aI185
aI186
aI206
aI209
aI210
aI211
aI212
aI213
aI214
aI217
aI285
aI286
aI287
aI288
aI289
aI292
aI293
aI294
aI295
aI296
aI298
aI299
aI300
aI301
aI310
aI311
aI312
aI313
aI314
aI316
aI328
aI329
aI330
aI331
aI332
aI333
aI334
aI335
aI340
aI341
aI342
aI343
aI344
aI345
aI359
aI360
aI361
aI362
aI364
aI365
aI415
aI419
aI420
aI421
aI425
aI426
aI427
aI428
aI429
aI430
aI431
aI432
aI433
aI463
aI464
aI465
aI466
aI486
aI487
aI495
aI497
aI499
aI500
aI501
aI502
asS'/Users/tobias/projects/appengine/demo/eggs/zope.pagetemplate-3.5.0-py2.5.egg/zope/pagetemplate/interfaces.py'
p390
(lp391
I97
aI34
aI107
aI38
aI71
aI104
aI63
aI106
aI75
aI78
aI17
aI18
aI51
aI21
aI55
aI23
aI25
aI58
aI91
aI60
aI85
asS'/private/var/folders/tY/tYk-BLGGGju0p1L+Vn3SHU+++TM/-Tmp-/tmpym6itQ/zc.buildout-1.2.1-py2.5.egg/zc/buildout/rmtree.py'
p392
(lp393
I65
aI16
aI17
aI18
aI20
aI62
asS'/Applications/Utilities/GoogleAppEngineLauncher.app/Contents/Resources/GoogleAppEngine-default.bundle/Contents/Resources/google_appengine/lib/yaml/lib/yaml/reader.py'
p394
(lp395
I130
aI131
aI132
aI135
aI136
aI137
aI138
aI139
aI140
aI141
aI142
aI143
aI144
aI145
aI146
aI147
aI150
aI154
aI155
aI158
aI159
aI160
aI161
aI164
aI168
aI169
aI170
aI174
aI175
aI182
aI183
aI184
aI185
aI186
aI187
aI188
aI189
aI190
aI191
aI192
aI204
aI205
aI206
aI207
aI208
aI209
aI210
aI213
aI214
aI215
aI216
aI218
aI95
aI96
aI97
aI98
aI99
aI100
aI101
aI102
aI103
aI104
aI105
aI106
aI107
aI111
aI116
aI117
aI118
aI119
aI120
aI123
aI124
asS'/Users/tobias/projects/appengine/bridal/trunk/demo/eggs/zope.component-3.7.0-py2.5.egg/zope/component/__init__.py'
p396
(lp397
I17
aI18
aI19
aI20
aI21
aI23
aI24
aI25
aI26
aI27
aI29
aI30
aI31
aI32
aI33
aI34
aI36
aI37
aI38
aI39
aI40
aI41
aI42
aI43
aI44
aI45
aI46
aI47
aI48
aI49
aI50
aI51
aI52
aI53
aI54
aI55
aI57
aI58
aI59
aI61
aI62
asS'/Users/tobias/projects/appengine/demo/src/demo/demo.py'
p398
(lp399
I1
aI3
aI4
aI6
aI7
aI8
aI9
aI10
aI11
aI12
aI13
aI14
aI15
aI16
aI17
aI18
aI19
aI20
aI21
aI22
aI23
aI24
aI25
aI26
aI27
aI28
aI29
aI30
aI31
aI32
aI33
aI34
aI36
aI37
aI38
aI39
aI40
aI41
aI42
aI43
aI44
aI45
aI46
aI47
aI48
aI49
aI50
aI51
aI52
aI53
aI54
aI55
aI56
aI57
aI58
aI59
aI60
aI61
aI62
aI63
aI64
aI65
aI66
aI67
aI68
aI69
aI70
aI71
aI72
aI73
aI74
aI75
aI76
aI77
aI78
aI79
aI80
aI81
aI82
aI84
aI85
aI86
aI87
aI88
aI89
aI90
aI91
aI92
aI93
aI94
aI95
aI96
aI97
aI98
aI99
aI100
aI101
aI102
aI103
aI104
aI105
aI106
aI107
aI108
aI109
aI110
aI111
aI112
aI113
aI114
aI115
aI116
aI117
aI118
aI119
aI120
aI121
aI122
aI123
aI124
aI125
aI126
aI127
aI128
aI130
aI131
aI132
aI134
aI135
aI136
aI138
aI139
aI140
aI141
aI142
aI143
aI144
aI145
aI146
aI147
aI148
aI149
aI150
aI151
aI152
aI153
aI155
aI156
aI157
aI159
aI160
aI161
aI162
aI164
aI166
aI171
asS'/private/var/folders/tY/tYk-BLGGGju0p1L+Vn3SHU+++TM/-Tmp-/tmpZHHBGu/zc.buildout-1.2.1-py2.5.egg/zc/__init__.py'
p400
(lp401
I1
aI2
asS'/Users/tobias/projects/appengine/demo/eggs/nose-0.11.1-py2.5.egg/nose/util.py'
p402
(lp403
I517
aI518
aI519
aI521
aI535
aI537
aI539
aI541
aI542
aI544
aI545
aI144
aI145
aI146
aI147
aI660
aI661
aI160
aI167
aI168
aI169
aI170
aI171
aI180
aI181
aI185
aI186
aI206
aI209
aI210
aI211
aI212
aI213
aI214
aI217
aI285
aI286
aI287
aI288
aI289
aI292
aI293
aI294
aI295
aI296
aI298
aI299
aI300
aI301
aI310
aI311
aI312
aI313
aI314
aI316
aI328
aI329
aI330
aI331
aI332
aI333
aI334
aI335
aI340
aI341
aI342
aI343
aI344
aI345
aI359
aI360
aI361
aI362
aI364
aI365
aI415
aI419
aI420
aI421
aI425
aI426
aI427
aI428
aI429
aI430
aI431
aI432
aI433
aI463
aI464
aI465
aI466
aI486
aI487
aI495
aI497
aI499
aI500
aI501
aI502
asS'/Users/tobias/projects/appengine/bridal/trunk/demo/bootstrap.py'
p404
(lp405
I21
aI23
aI25
aI27
aI29
aI30
aI39
aI46
aI47
aI49
aI50
aI52
aI64
aI65
aI66
aI67
aI69
aI71
aI73
aI74
aI75
aI76
aI77
asS'/Applications/Utilities/GoogleAppEngineLauncher.app/Contents/Resources/GoogleAppEngine-default.bundle/Contents/Resources/google_appengine/google/appengine/api/datastore_types.py'
p406
(lp407
I1064
aI1066
aI1070
aI1072
aI1077
aI1289
aI1080
aI1081
aI1083
aI1290
aI1088
aI1089
aI1090
aI1091
aI1094
aI99
aI96
aI1123
aI102
aI1134
aI1144
aI121
aI122
aI123
aI124
aI1169
aI146
aI1171
aI1172
aI1174
aI1175
aI1176
aI173
aI1146
aI1269
aI1271
aI1272
aI1275
aI1276
aI1278
aI1279
aI1280
aI1281
aI1282
aI1284
aI1285
aI1286
aI1288
aI265
aI266
aI1292
aI1295
aI272
aI273
aI274
aI280
aI281
aI282
aI284
aI288
aI289
aI292
aI296
aI297
aI299
aI304
aI1330
aI1355
aI1356
aI1358
aI1359
aI1360
aI1361
aI1362
aI1363
aI1364
aI1366
aI1368
aI1370
aI1372
aI1373
aI1374
aI1375
aI1376
aI1377
aI1378
aI1379
aI1383
aI1384
aI1385
aI1386
aI1170
aI1391
aI369
aI374
aI375
aI376
aI377
aI389
aI390
aI391
aI392
aI394
aI395
aI396
aI398
aI972
aI986
aI1006
asS'/Users/tobias/projects/appengine/bridal/trunk/demo/eggs/nose-0.11.1-py2.5.egg/nose/core.py'
p408
(lp409
I172
aI34
aI36
aI37
aI41
aI42
aI43
aI44
aI173
aI50
aI51
aI55
aI56
aI185
aI186
aI187
aI188
aI189
aI190
aI63
aI192
aI184
aI59
aI178
aI60
aI61
aI62
asS'/Users/tobias/projects/appengine/bridal/trunk/demo/nosegae.py'
p410
(lp411
I128
aI131
aI132
aI133
aI134
aI153
aI154
aI155
aI157
aI158
aI160
aI162
aI163
aI219
aI206
aI207
aI208
aI209
aI210
aI211
aI212
aI213
aI216
aI217
aI218
aI91
aI92
aI93
aI94
aI95
aI96
aI97
aI98
aI99
aI100
aI101
aI102
aI103
aI107
aI108
aI112
aI116
aI117
aI118
aI119
aI120
aI121
aI122
aI123
aI125
aI126
aI127
asS'/Users/tobias/projects/appengine/bridal/trunk/demo/eggs/zope.component-3.7.0-py2.5.egg/zope/component/_api.py'
p412
(lp413
I132
aI23
aI140
aI45
aI17
aI18
aI19
aI21
aI22
aI151
aI152
aI25
aI26
aI27
aI28
aI29
aI30
aI31
aI32
aI161
aI36
aI37
aI38
aI167
aI44
aI173
aI46
aI176
aI49
aI50
aI51
aI180
aI184
aI186
aI62
aI160
aI68
aI202
aI48
aI217
aI221
aI95
aI224
aI101
aI102
aI39
aI108
aI109
aI110
aI112
aI114
aI115
aI116
aI117
aI122
aI124
asS'/Applications/Utilities/GoogleAppEngineLauncher.app/Contents/Resources/GoogleAppEngine-default.bundle/Contents/Resources/google_appengine/google/appengine/api/images/images_service_pb.py'
p414
(lp415
I18
aI19
aI20
aI23
aI25
aI27
aI28
aI29
aI30
aI31
aI33
aI34
aI35
aI36
aI37
aI38
aI41
aI42
aI45
aI50
aI53
aI57
aI61
aI65
aI68
aI71
aI78
aI84
aI88
aI91
aI92
aI93
aI95
aI96
aI97
aI98
aI99
aI100
aI102
aI103
aI104
aI105
aI106
aI107
aI108
aI111
aI112
aI115
aI120
aI123
aI127
aI131
aI135
aI138
aI141
aI148
aI154
aI158
aI161
aI162
aI163
aI164
aI165
aI166
aI167
aI168
aI169
aI170
aI171
aI172
aI173
aI174
aI175
aI176
aI177
aI178
aI179
aI180
aI181
aI182
aI183
aI185
aI188
aI190
aI194
aI199
aI201
aI203
aI207
aI212
aI214
aI216
aI220
aI225
aI227
aI229
aI233
aI238
aI240
aI242
aI246
aI251
aI253
aI255
aI259
aI264
aI266
aI268
aI272
aI277
aI279
aI281
aI285
aI290
aI292
aI294
aI298
aI303
aI305
aI307
aI311
aI316
aI319
aI332
aI356
aI360
aI374
aI386
aI418
aI455
aI469
aI470
aI471
aI472
aI473
aI474
aI475
aI476
aI477
aI478
aI491
aI495
aI496
aI498
aI500
aI502
aI504
aI506
aI508
aI510
aI512
aI514
aI518
aI519
aI520
aI521
aI522
aI524
aI527
aI529
aI533
aI538
aI541
aI545
aI551
aI559
aI564
aI567
aI571
aI581
aI586
aI590
aI594
aI595
aI599
aI600
aI601
aI603
aI604
aI606
aI607
aI608
aI611
aI612
aI614
aI615
aI617
aI620
aI622
aI626
aI631
aI634
aI638
aI644
aI648
aI653
aI656
aI661
aI671
aI676
aI680
aI684
aI685
aI689
aI690
aI691
aI692
aI693
aI695
aI701
aI703
aI705
aI707
aI709
aI710
aI712
aI715
aI718
aI723
aI725
aI727
aI729
aI731
aI734
aI740
aI751
aI767
aI775
aI780
aI792
aI817
aI837
aI838
aI839
aI845
aI849
aI850
aI852
aI854
aI858
aI859
aI860
aI861
aI863
aI867
aI869
aI871
aI873
aI876
aI880
aI886
aI895
aI900
aI903
aI908
aI921
aI929
aI933
aI937
aI938
aI942
aI943
aI944
aI946
aI947
aI948
aI949
aI950
aI951
aI952
aI953
aI954
aI956
aI957
aI958
aI959
aI960
aI961
aI962
aI963
aI964
aI965
aI968
aI969
aI971
aI972
aI973
aI974
aI975
aI976
aI977
aI978
aI979
aI980
aI982
aI985
aI987
aI991
aI996
aI998
aI1000
aI1004
aI1009
aI1011
aI1013
aI1017
aI1022
aI1024
aI1026
aI1030
aI1035
aI1037
aI1039
aI1043
aI1048
aI1051
aI1059
aI1073
aI1097
aI1105
aI1112
aI1124
aI1146
aI1155
aI1156
aI1157
aI1158
aI1159
aI1167
aI1171
aI1172
aI1174
aI1176
aI1178
aI1180
aI1184
aI1185
aI1186
aI1187
aI1188
aI1189
aI1190
aI1191
aI1192
aI1193
aI1195
aI1199
aI1201
aI1205
aI1210
aI1212
aI1214
aI1218
aI1223
aI1225
aI1227
aI1229
aI1231
aI1233
aI1235
aI1239
aI1244
aI1247
aI1254
aI1266
aI1283
aI1291
aI1297
aI1309
aI1331
aI1342
aI1343
aI1344
aI1345
aI1352
aI1356
aI1357
aI1359
aI1361
aI1363
aI1367
aI1368
aI1369
aI1370
aI1372
aI1378
aI1379
aI1381
aI1384
aI1387
aI1392
aI1394
aI1395
aI1397
aI1400
aI1403
aI1408
aI1410
aI1412
aI1414
aI1416
aI1419
aI1425
aI1437
aI1450
aI1459
aI1464
aI1477
aI1502
aI1526
aI1527
aI1528
aI1534
aI1538
aI1539
aI1541
aI1543
aI1547
aI1548
aI1549
aI1550
aI1552
aI1556
aI1558
aI1560
aI1562
aI1565
aI1569
aI1575
aI1584
aI1589
aI1592
aI1597
aI1610
aI1618
aI1622
aI1626
aI1627
aI1631
aI1632
aI1633
aI1634
aI1636
aI1640
aI1642
aI1644
aI1646
aI1649
aI1653
aI1659
aI1668
aI1673
aI1676
aI1681
aI1694
aI1702
aI1706
aI1710
aI1711
aI1715
aI1716
aI1717
aI1719
aI1725
aI1726
aI1728
aI1731
aI1734
aI1737
aI1740
aI1741
aI1743
aI1746
aI1749
aI1752
aI1755
aI1756
aI1758
aI1761
aI1764
aI1767
aI1771
aI1777
aI1790
aI1794
aI1804
aI1809
aI1820
aI1836
aI1858
aI1859
aI1860
aI1866
aI1870
aI1871
aI1873
aI1875
aI1879
aI1880
aI1881
aI1882
aI1884
aI1888
aI1890
aI1892
aI1894
aI1897
aI1901
aI1907
aI1916
aI1921
aI1924
aI1929
aI1942
aI1950
aI1954
aI1958
aI1959
aI1963
aI1964
aI1966
asS'/private/var/folders/tY/tYk-BLGGGju0p1L+Vn3SHU+++TM/-Tmp-/tmpUOY8un/zc.buildout-1.2.1-py2.5.egg/zc/buildout/buildout.py'
p416
(lp417
I517
aI17
aI19
aI20
aI21
aI22
aI1047
aI24
aI537
aI26
aI27
aI28
aI29
aI30
aI31
aI33
aI34
aI35
aI37
aI39
aI40
aI45
aI47
aI48
aI50
aI1075
aI52
aI54
aI1079
aI57
aI59
aI1085
aI63
aI65
aI68
aI69
aI70
aI71
aI72
aI73
aI74
aI75
aI76
aI77
aI80
aI1105
aI83
aI596
aI1114
aI605
aI1296
aI1122
aI1123
aI1124
aI1125
aI1126
aI616
aI1129
aI1143
aI638
aI1151
aI1158
aI23
aI661
aI25
aI677
aI688
aI691
aI1215
aI1216
aI1058
aI1230
aI547
aI726
aI1240
aI1255
aI1063
aI1263
aI1454
aI1272
aI1289
aI1290
aI1291
aI272
aI1298
aI277
aI900
aI806
aI309
aI311
aI834
aI872
aI874
aI61
aI891
aI894
aI897
aI1412
aI1413
aI904
aI1417
aI1418
aI1421
aI1422
aI1423
aI1424
aI1425
aI1426
aI1427
aI1428
aI1429
aI1430
aI1431
aI942
aI944
aI951
aI1478
aI1479
aI1481
aI975
aI981
aI1011
aI1012
aI1013
aI1014
aI509
aI1535
asS'/Users/tobias/projects/appengine/demo/lint.py'
p418
(lp419
I110
aI112
aI113
aI114
aI115
aI117
aI118
aI120
aI123
aI125
aI137
aI138
aI139
aI140
aI142
aI146
aI148
aI149
aI151
aI152
aI153
aI154
aI157
aI159
aI160
aI161
aI162
aI164
aI165
aI167
aI168
aI170
aI171
aI174
aI176
aI178
aI180
aI182
aI183
aI185
aI186
aI187
aI188
aI189
aI191
aI196
aI204
aI211
aI214
aI216
aI217
aI219
aI223
aI226
aI230
aI233
aI235
aI236
aI238
aI239
aI240
aI242
aI244
aI247
aI251
aI253
aI254
aI255
aI256
aI257
aI259
aI260
aI262
aI263
aI265
aI266
aI267
aI269
aI270
aI272
aI273
aI274
aI277
aI278
aI281
aI284
aI285
aI289
aI290
aI291
aI292
aI293
aI296
aI297
aI301
aI308
aI309
aI311
aI312
aI316
aI318
aI321
aI322
aI325
aI326
aI331
aI334
aI335
aI337
aI338
aI341
aI342
aI345
aI349
aI350
aI351
aI355
aI356
aI357
aI361
aI362
aI365
aI366
aI368
aI369
aI370
aI376
aI377
aI380
aI381
aI382
aI385
aI386
aI387
aI391
aI392
aI394
aI395
aI397
aI401
aI402
aI405
aI406
aI407
aI408
aI409
aI410
aI416
aI417
aI421
aI425
aI429
aI434
aI436
asS'/Users/tobias/projects/appengine/bridal/trunk/demo/eggs/zope.interface-3.5.1-py2.5-macosx-10.3-i386.egg/zope/interface/adapter.py'
p420
(lp421
I86
aI17
aI530
aI19
aI20
aI22
aI23
aI28
aI32
aI545
aI34
aI547
aI549
aI551
aI42
aI615
aI556
aI46
aI605
aI561
aI50
aI565
aI566
aI567
aI570
aI607
aI574
aI576
aI577
aI579
aI68
aI70
aI71
aI584
aI73
aI586
aI75
aI588
aI590
aI591
aI80
aI81
aI82
aI611
aI596
aI597
aI598
aI88
aI89
aI602
aI603
aI604
aI93
aI94
aI95
aI96
aI609
aI98
aI99
aI100
aI614
aI102
aI103
aI616
aI105
aI106
aI107
aI620
aI109
aI112
aI104
aI114
aI115
aI116
aI117
aI119
aI632
aI121
aI140
aI174
aI76
aI544
aI201
aI240
aI246
aI247
aI249
aI554
aI254
aI259
aI272
aI558
aI606
aI291
aI302
aI305
aI319
aI505
aI79
aI55
aI334
aI608
aI348
aI350
aI352
aI357
aI97
aI362
aI366
aI370
aI374
aI377
aI378
aI382
aI384
aI386
aI387
aI388
aI389
aI390
aI392
aI393
aI394
aI398
aI423
aI424
aI425
aI583
aI428
aI429
aI430
aI431
aI72
aI436
aI437
aI440
aI447
aI448
aI449
aI450
aI451
aI452
aI453
aI455
aI456
aI457
aI458
aI459
aI460
aI463
aI464
aI612
aI467
aI468
aI469
aI470
aI471
aI473
aI475
aI477
aI478
aI479
aI482
aI483
aI486
aI488
aI594
aI613
aI84
aI508
aI85
asS'/Users/tobias/projects/appengine/demo/extension.py'
p422
(lp423
I32
aI1
aI2
aI3
aI5
aI6
aI33
aI8
aI7
aI13
aI14
aI16
aI34
aI18
aI28
aI29
aI31
asS'/Users/tobias/projects/appengine/demo/eggs/coverage-3.0b3-py2.5-macosx-10.3-i386.egg/coverage/control.py'
p424
(lp425
I123
aI174
aI159
asS'/Users/tobias/projects/appengine/demo/eggs/zope.interface-3.5.1-py2.5-macosx-10.3-i386.egg/zope/interface/ro.py'
p426
(lp427
I17
aI18
aI21
aI24
aI26
aI45
aI46
aI47
aI48
aI49
aI50
aI51
aI52
aI53
aI54
aI55
aI57
aI58
aI60
aI61
aI62
aI63
aI64
aI70
aI71
asS'/private/var/folders/tY/tYk-BLGGGju0p1L+Vn3SHU+++TM/-Tmp-/tmpg40IKD/zc.buildout-1.2.1-py2.5.egg/zc/buildout/rmtree.py'
p428
(lp429
I65
aI16
aI17
aI18
aI20
aI62
asS'/Users/tobias/projects/appengine/bridal/trunk/demo/eggs/zope.tal-3.5.1-py2.5.egg/zope/tal/talinterpreter.py'
p430
(lp431
I512
aI513
aI516
aI855
aI527
aI528
aI17
aI18
aI531
aI20
aI21
aI534
aI24
aI26
aI27
aI28
aI29
aI30
aI31
aI35
aI548
aI549
aI550
aI39
aI552
aI553
aI554
aI45
aI46
aI47
aI560
aI561
aI50
aI51
aI53
aI567
aI348
aI351
aI572
aI574
aI575
aI576
aI577
aI67
aI70
aI584
aI586
aI75
aI588
aI590
aI505
aI596
aI85
aI598
aI601
aI603
aI605
aI606
aI608
aI99
aI100
aI529
aI105
aI106
aI619
aI108
aI109
aI110
aI111
aI114
aI19
aI631
aI62
aI60
aI642
aI107
aI143
aI145
aI146
aI147
aI148
aI738
aI842
aI742
aI690
aI692
aI182
aI183
aI184
aI185
aI186
aI187
aI188
aI189
aI190
aI191
aI192
aI193
aI194
aI195
aI198
aI199
aI201
aI202
aI203
aI204
aI205
aI206
aI209
aI212
aI213
aI214
aI215
aI216
aI217
aI218
aI219
aI220
aI221
aI734
aI37
aI736
aI226
aI739
aI228
aI229
aI536
aI743
aI232
aI745
aI551
aI748
aI93
aI751
aI752
aI754
aI741
aI246
aI248
aI761
aI252
aI253
aI254
aI256
aI897
aI264
aI267
aI268
aI269
aI270
aI271
aI272
aI273
aI274
aI787
aI276
aI558
aI559
aI284
aI285
aI286
aI800
aI289
aI291
aI813
aI815
aI818
aI563
aI308
aI822
aI824
aI825
aI223
aI318
aI319
aI320
aI321
aI322
aI395
aI326
aI421
aI328
aI329
aI330
aI331
aI332
aI333
aI397
aI848
aI850
aI853
aI342
aI343
aI345
aI347
aI860
aI349
aI863
aI352
aI353
aI354
aI355
aI230
aI358
aI359
aI779
aI361
aI899
aI368
aI370
aI373
aI375
aI376
aI377
aI379
aI380
aI385
aI386
aI387
aI388
aI389
aI390
aI391
aI393
aI394
aI907
aI396
aI909
aI400
aI401
aI402
aI915
aI408
aI409
aI410
aI411
aI412
aI413
aI414
aI415
aI913
aI418
aI419
aI420
aI582
aI423
aI424
aI425
aI427
aI1020
aI840
aI755
aI841
aI955
aI957
aI960
aI843
aI417
aI845
aI468
aI249
aI984
aI986
aI987
aI988
aI989
aI990
aI991
aI992
aI993
aI994
aI995
aI996
aI997
aI998
aI1001
aI1005
aI1006
aI579
aI1011
aI1014
aI1016
aI1017
aI507
aI508
aI509
aI510
aI511
asS'/Users/tobias/projects/appengine/demo/eggs/zope.tal-3.5.1-py2.5.egg/zope/tal/talinterpreter.py'
p432
(lp433
I512
aI513
aI516
aI343
aI527
aI528
aI17
aI18
aI19
aI20
aI21
aI534
aI24
aI26
aI27
aI28
aI29
aI30
aI31
aI35
aI548
aI549
aI550
aI551
aI552
aI553
aI554
aI555
aI556
aI45
aI558
aI559
aI560
aI561
aI50
aI51
aI53
aI567
aI351
aI60
aI62
aI575
aI576
aI577
aI579
aI70
aI584
aI586
aI75
aI588
aI590
aI611
aI596
aI85
aI598
aI601
aI603
aI93
aI606
aI608
aI610
aI99
aI100
aI613
aI614
aI615
aI105
aI106
aI619
aI620
aI621
aI110
aI111
aI114
aI531
aI629
aI631
aI642
aI107
aI108
aI143
aI536
aI146
aI147
aI148
aI738
aI623
aI994
aI626
aI860
aI690
aI692
aI182
aI183
aI184
aI185
aI186
aI187
aI188
aI189
aI190
aI191
aI192
aI193
aI194
aI195
aI198
aI199
aI201
aI202
aI203
aI204
aI205
aI206
aI109
aI209
aI212
aI213
aI214
aI215
aI216
aI217
aI218
aI219
aI220
aI221
aI734
aI37
aI736
aI226
aI739
aI228
aI229
aI742
aI743
aI232
aI745
aI39
aI748
aI751
aI752
aI754
aI741
aI246
aI248
aI761
aI252
aI253
aI605
aI256
aI897
aI264
aI267
aI268
aI269
aI270
aI271
aI272
aI273
aI274
aI787
aI276
aI46
aI47
aI284
aI285
aI286
aI572
aI800
aI289
aI291
aI145
aI813
aI815
aI818
aI563
aI308
aI822
aI824
aI825
aI223
aI318
aI319
aI320
aI321
aI322
aI395
aI326
aI421
aI840
aI841
aI330
aI843
aI332
aI333
aI909
aI848
aI850
aI1017
aI853
aI342
aI855
aI345
aI347
aI348
aI349
aI863
aI352
aI353
aI354
aI355
aI230
aI358
aI359
aI779
aI361
aI899
aI368
aI370
aI574
aI375
aI376
aI377
aI379
aI380
aI385
aI386
aI387
aI388
aI389
aI390
aI391
aI393
aI394
aI907
aI396
aI397
aI400
aI401
aI402
aI915
aI408
aI409
aI410
aI411
aI412
aI413
aI414
aI415
aI417
aI418
aI419
aI420
aI582
aI423
aI424
aI425
aI427
aI1020
aI328
aI755
aI329
aI955
aI913
aI957
aI960
aI331
aI373
aI845
aI612
aI468
aI249
aI984
aI986
aI987
aI988
aI989
aI990
aI991
aI992
aI993
aI67
aI995
aI996
aI997
aI998
aI1001
aI1005
aI1006
aI509
aI1011
aI254
aI1014
aI1016
aI505
aI529
aI507
aI508
aI842
aI510
aI511
asS'/private/var/folders/tY/tYk-BLGGGju0p1L+Vn3SHU+++TM/-Tmp-/tmpbSvrMy/zc.buildout-1.2.1-py2.5.egg/zc/buildout/__init__.py'
p434
(lp435
I17
aI19
aI21
aI23
asS'/private/var/folders/tY/tYk-BLGGGju0p1L+Vn3SHU+++TM/-Tmp-/tmp6RKWAY/zc.buildout-1.2.1-py2.5.egg/zc/buildout/__init__.py'
p436
(lp437
I17
aI19
aI21
aI23
asS'/private/var/folders/tY/tYk-BLGGGju0p1L+Vn3SHU+++TM/-Tmp-/tmp6RKWAY/zc.buildout-1.2.1-py2.5.egg/zc/buildout/rmtree.py'
p438
(lp439
I65
aI16
aI17
aI18
aI20
aI62
asS'/Users/tobias/projects/appengine/bridal/trunk/demo/eggs/zope.interface-3.5.1-py2.5-macosx-10.3-i386.egg/zope/interface/interface.py'
p440
(lp441
I514
aI518
aI520
aI523
aI525
aI526
aI528
aI17
aI530
aI531
aI533
aI22
aI23
aI24
aI25
aI26
aI802
aI29
aI30
aI31
aI33
aI546
aI35
aI554
aI43
aI556
aI559
aI264
aI562
aI51
aI565
aI58
aI61
aI62
aI63
aI65
aI66
aI579
aI69
aI73
aI258
aI77
aI269
aI81
aI85
aI598
aI89
aI602
aI93
aI95
aI611
aI623
aI19
aI771
aI124
aI21
aI642
aI645
aI789
aI163
aI261
aI165
aI167
aI168
aI170
aI172
aI687
aI693
aI695
aI697
aI799
aI190
aI704
aI707
aI289
aI712
aI201
aI203
aI205
aI206
aI719
aI722
aI211
aI213
aI730
aI293
aI744
aI745
aI746
aI747
aI748
aI210
aI750
aI751
aI752
aI754
aI755
aI297
aI760
aI762
aI763
aI764
aI298
aI766
aI255
aI256
aI769
aI770
aI259
aI260
aI773
aI263
aI776
aI777
aI266
aI779
aI268
aI781
aI783
aI786
aI275
aI277
aI278
aI281
aI282
aI283
aI796
aI285
aI798
aI287
aI801
aI290
aI804
aI805
aI806
aI809
aI810
aI811
aI300
aI302
aI303
aI304
aI305
aI306
aI308
aI309
aI310
aI313
aI315
aI318
aI319
aI322
aI130
aI795
aI267
aI356
aI401
aI402
aI67
aI404
aI424
aI425
aI432
aI433
aI435
aI436
aI438
aI439
aI440
aI441
aI443
aI447
aI451
aI453
aI454
aI455
aI456
aI457
aI458
aI460
aI461
aI463
aI465
aI466
aI470
aI471
aI474
aI478
aI479
aI480
aI481
aI482
aI483
aI484
aI252
aI490
aI492
aI494
aI682
aI511
asS'/Users/tobias/projects/appengine/bridal/trunk/demo/eggs/zope.tales-3.4.0-py2.5.egg/zope/tales/__init__.py'
p442
(lp443
I17
asS'/Users/tobias/projects/appengine/bridal/trunk/demo/eggs/zope.tales-3.4.0-py2.5.egg/zope/tales/engine.py'
p444
(lp445
I32
aI33
aI34
aI35
aI37
aI19
aI20
aI21
aI22
aI23
aI25
aI26
aI27
aI28
aI29
aI30
aI31
asS'/private/var/folders/tY/tYk-BLGGGju0p1L+Vn3SHU+++TM/-Tmp-/tmptSkiSH/zc.buildout-1.2.1-py2.5.egg/zc/buildout/easy_install.py'
p446
(lp447
I1026
aI1028
aI1030
aI1031
aI1032
aI1035
aI1036
aI1037
aI1038
aI1039
aI1040
aI1041
aI1042
aI1044
aI21
aI1046
aI23
aI24
aI25
aI26
aI27
aI28
aI29
aI30
aI1055
aI32
aI33
aI34
aI35
aI36
aI37
aI38
aI39
aI1064
aI1065
aI42
aI1067
aI45
aI1070
aI47
aI1073
aI50
aI52
aI54
aI55
aI57
aI1085
aI63
aI1088
aI69
aI70
aI71
aI74
aI76
aI78
aI79
aI594
aI1120
aI100
aI102
aI615
aI106
aI107
aI113
aI114
aI628
aI1147
aI132
aI134
aI1160
aI1162
aI1164
aI142
aI143
aI1169
aI146
aI148
aI149
aI150
aI151
aI152
aI153
aI154
aI1179
aI1181
aI158
aI159
aI160
aI161
aI1186
aI163
aI164
aI165
aI1190
aI684
aI1197
aI1205
aI1206
aI31
aI1212
aI202
aI750
aI756
aI757
aI758
aI41
aI760
aI761
aI762
aI764
aI770
aI771
aI772
aI773
aI774
aI776
aI777
aI778
aI779
aI780
aI782
aI783
aI784
aI785
aI786
aI788
aI46
aI795
aI796
aI797
aI798
aI291
aI806
aI807
aI808
aI299
aI815
aI822
aI838
aI839
aI140
aI43
aI911
aI64
aI906
aI910
aI399
aI912
aI913
aI914
aI915
aI918
aI919
aI920
aI922
aI924
aI928
aI931
aI932
aI933
aI934
aI935
aI936
aI937
aI938
aI939
aI940
aI157
aI945
aI946
aI951
aI953
aI954
aI956
aI957
aI958
aI961
aI966
aI455
aI968
aI969
aI759
aI162
aI979
aI980
aI981
aI984
aI473
aI996
aI166
aI1009
asS'/Users/tobias/projects/appengine/bridal/trunk/demo/__init__.py'
p448
(lp449
I1
aI2
aI3
aI4
aI5
aI6
aI7
aI8
aI9
aI10
aI11
aI12
aI13
aI14
aI1039
aI16
aI17
aI18
aI19
aI22
aI23
aI24
aI819
aI26
aI1051
aI28
aI544
aI36
aI37
aI39
aI40
aI42
aI44
aI46
aI47
aI48
aI49
aI50
aI51
aI53
aI55
aI1081
aI63
aI64
aI1090
aI1366
aI71
aI76
aI77
aI78
aI79
aI80
aI81
aI83
aI526
aI88
aI1380
aI90
aI91
aI92
aI93
aI95
aI97
aI98
aI99
aI101
aI1126
aI1128
aI1137
aI1141
aI1144
aI633
aI1146
aI1149
aI1368
aI132
aI134
aI135
aI1165
aI143
aI144
aI657
aI659
aI1172
aI661
aI150
aI1175
aI152
aI153
aI1178
aI667
aI1180
aI157
aI670
aI672
aI161
aI1186
aI163
aI164
aI165
aI678
aI679
aI681
aI1194
aI683
aI172
aI1197
aI174
aI177
aI178
aI1395
aI180
aI181
aI182
aI183
aI184
aI185
aI1210
aI187
aI188
aI313
aI190
aI191
aI192
aI1440
aI1225
aI1227
aI204
aI1229
aI206
aI205
aI208
aI1233
aI210
aI211
aI212
aI365
aI1242
aI207
aI734
aI228
aI229
aI307
aI746
aI148
aI1260
aI750
aI239
aI1064
aI1235
aI1275
aI1277
aI1279
aI770
aI1283
aI1285
aI305
aI268
aI1295
aI1298
aI1300
aI302
aI791
aI1304
aI793
aI1306
aI1310
aI287
aI1313
aI293
aI294
aI295
aI296
aI1322
aI1324
aI301
aI1326
aI303
aI304
aI1329
aI306
aI1331
aI308
aI1246
aI310
aI311
aI1337
aI314
aI1339
aI316
aI318
aI821
aI320
aI321
aI1348
aI328
aI329
aI330
aI331
aI1356
aI702
aI1359
aI1361
aI1363
aI852
aI341
aI854
aI343
aI344
aI345
aI1370
aI347
aI1373
aI1375
aI1377
aI354
aI315
aI356
aI1382
aI1385
aI874
aI1387
aI876
aI1389
aI366
aI367
aI319
aI371
aI1342
aI374
aI375
aI377
aI1403
aI892
aI893
aI149
aI384
aI899
aI388
aI389
aI391
aI57
aI395
aI889
aI397
aI400
aI381
aI173
aI1177
aI409
aI413
aI926
aI415
aI928
aI155
aI934
aI156
aI147
aI355
aI431
aI433
aI435
aI1428
aI1354
aI1184
aI66
aI373
aI15
aI332
aI461
aI1345
aI1102
aI527
aI476
aI477
aI1158
aI998
aI167
aI921
aI1017
aI102
aI426
asS'/Applications/Utilities/GoogleAppEngineLauncher.app/Contents/Resources/GoogleAppEngine-default.bundle/Contents/Resources/google_appengine/google/appengine/api/yaml_builder.py'
p450
(lp451
I384
aI385
aI258
aI259
aI260
aI261
aI257
aI264
aI266
aI267
aI269
aI270
aI400
aI402
aI403
aI404
aI217
aI281
aI282
aI283
aI284
aI413
aI414
aI415
aI416
aI304
aI292
aI293
aI335
aI263
aI430
aI303
aI432
aI182
aI312
aI185
aI186
aI187
aI188
aI215
aI343
aI66
aI203
aI204
aI372
aI397
aI336
aI337
aI338
aI339
aI398
aI214
aI313
aI216
aI345
aI346
aI219
aI220
aI349
aI350
aI351
aI352
aI353
aI354
aI234
aI366
aI367
aI369
aI370
aI371
aI348
aI373
aI119
aI255
aI382
aI383
asS'/Users/tobias/projects/appengine/bridal/trunk/demo/eggs/nose-0.11.1-py2.5.egg/nose/plugins/logcapture.py'
p452
(lp453
I128
aI129
aI140
aI141
aI142
aI143
aI145
aI163
aI39
aI168
aI41
aI47
aI48
aI179
aI180
aI182
aI183
aI186
aI187
aI190
aI191
aI192
asS'/Users/tobias/projects/appengine/demo/eggs/nose-0.11.1-py2.5.egg/nose/failure.py'
p454
(lp455
I36
aI37
aI39
aI21
aI22
aI23
aI24
aI25
aI26
aI29
aI30
asS'/Users/tobias/projects/appengine/bridal/trunk/demo/eggs/zope.tal-3.5.1-py2.5.egg/zope/tal/taldefs.py'
p456
(lp457
I68
aI51
aI131
aI132
aI133
aI135
aI136
aI138
aI140
aI63
aI17
aI18
aI19
aI20
aI150
aI23
aI117
aI25
aI26
aI28
aI29
aI30
aI162
aI36
aI37
aI38
aI39
aI40
aI41
aI171
aI44
aI45
aI46
aI47
aI48
aI49
aI50
aI179
aI52
aI53
aI182
aI183
aI180
aI58
aI59
aI188
aI61
aI190
aI181
aI192
aI193
aI194
aI195
aI196
aI54
aI198
aI199
aI201
aI34
aI64
aI77
aI80
aI154
aI185
aI90
aI91
aI93
aI94
aI96
aI97
aI70
aI100
aI101
aI103
aI60
aI65
aI189
aI114
aI115
aI62
aI191
asS'/private/var/folders/tY/tYk-BLGGGju0p1L+Vn3SHU+++TM/-Tmp-/tmphrxJOz/zc.buildout-1.2.1-py2.5.egg/zc/buildout/buildout.py'
p458
(lp459
I17
aI19
aI20
aI21
aI22
aI23
aI24
aI25
aI26
aI27
aI28
aI29
aI30
aI31
aI33
aI34
aI35
aI37
aI39
aI40
aI45
aI47
aI48
aI50
aI52
aI54
aI57
aI59
aI61
aI63
aI65
aI68
aI69
aI70
aI71
aI72
aI73
aI74
aI75
aI76
aI77
aI80
aI83
aI85
aI87
aI90
aI91
aI93
aI94
aI95
aI96
aI109
aI110
aI115
aI116
aI117
aI118
aI119
aI120
aI123
aI124
aI127
aI134
aI135
aI136
aI140
aI147
aI148
aI149
aI150
aI151
aI153
aI154
aI156
aI157
aI158
aI159
aI161
aI162
aI163
aI171
aI174
aI175
aI177
aI178
aI179
aI181
aI185
aI186
aI187
aI189
aI190
aI191
aI193
aI195
aI196
aI198
aI199
aI201
aI204
aI205
aI207
aI208
aI210
aI211
aI214
aI215
aI218
aI220
aI221
aI224
aI225
aI227
aI228
aI231
aI232
aI234
aI235
aI236
aI237
aI243
aI244
aI247
aI249
aI250
aI258
aI259
aI267
aI268
aI270
aI272
aI273
aI275
aI277
aI278
aI280
aI283
aI284
aI285
aI286
aI287
aI293
aI294
aI295
aI296
aI303
aI304
aI305
aI306
aI307
aI309
aI311
aI509
aI517
aI537
aI538
aI541
aI542
aI543
aI547
aI596
aI605
aI616
aI638
aI661
aI677
aI688
aI691
aI692
aI693
aI694
aI695
aI696
aI699
aI700
aI701
aI702
aI703
aI705
aI706
aI708
aI709
aI710
aI716
aI717
aI718
aI722
aI723
aI724
aI726
aI806
aI834
aI872
aI874
aI875
aI876
aI877
aI878
aI879
aI881
aI882
aI886
aI887
aI888
aI889
aI891
aI894
aI897
aI900
aI904
aI942
aI944
aI945
aI946
aI947
aI948
aI949
aI951
aI952
aI953
aI956
aI957
aI960
aI961
aI975
aI981
aI982
aI983
aI984
aI985
aI987
aI988
aI989
aI990
aI991
aI993
aI995
aI1008
aI1009
aI1011
aI1012
aI1013
aI1014
aI1047
aI1048
aI1049
aI1050
aI1051
aI1053
aI1054
aI1056
aI1058
aI1059
aI1061
aI1063
aI1075
aI1079
aI1085
aI1105
aI1114
aI1122
aI1123
aI1124
aI1125
aI1126
aI1129
aI1143
aI1151
aI1158
aI1164
aI1167
aI1176
aI1177
aI1178
aI1180
aI1183
aI1185
aI1187
aI1188
aI1189
aI1190
aI1191
aI1192
aI1193
aI1194
aI1195
aI1196
aI1198
aI1204
aI1211
aI1212
aI1215
aI1216
aI1230
aI1240
aI1241
aI1242
aI1246
aI1252
aI1253
aI1255
aI1256
aI1257
aI1258
aI1260
aI1261
aI1263
aI1272
aI1289
aI1296
aI1298
aI1412
aI1413
aI1417
aI1418
aI1421
aI1422
aI1423
aI1424
aI1425
aI1426
aI1427
aI1428
aI1429
aI1430
aI1431
aI1454
aI1455
aI1456
aI1458
aI1459
aI1462
aI1463
aI1482
aI1491
aI1493
aI1496
aI1497
aI1498
aI1499
aI1505
aI1506
aI1507
aI1508
aI1509
aI1533
aI1535
asS'/Applications/Utilities/GoogleAppEngineLauncher.app/Contents/Resources/GoogleAppEngine-default.bundle/Contents/Resources/google_appengine/google/appengine/api/yaml_object.py'
p460
(lp461
I132
aI143
aI144
aI145
aI146
aI157
aI158
aI46
aI47
aI178
aI73
aI58
aI60
aI192
aI193
aI198
aI72
aI201
aI202
aI203
aI205
aI206
aI207
aI82
aI55
aI107
aI244
aI245
aI246
aI120
aI121
aI122
aI123
asS'/Users/tobias/projects/appengine/demo/eggs/zope.interface-3.5.1-py2.5-macosx-10.3-i386.egg/zope/interface/advice.py'
p462
(lp463
I129
aI132
aI135
aI136
aI139
aI142
aI147
aI150
aI152
aI175
aI28
aI157
aI30
aI159
aI33
aI39
aI40
aI42
aI43
aI44
aI46
aI47
aI49
aI51
aI53
aI56
aI58
aI31
aI66
aI69
aI93
aI94
aI59
aI104
aI105
aI108
aI110
aI111
aI113
aI114
aI116
asS'/Applications/Utilities/GoogleAppEngineLauncher.app/Contents/Resources/GoogleAppEngine-default.bundle/Contents/Resources/google_appengine/google/appengine/api/images/images_not_implemented_stub.py'
p464
(lp465
I25
aI18
aI22
aI23
asS'/private/var/folders/tY/tYk-BLGGGju0p1L+Vn3SHU+++TM/-Tmp-/tmp8RpW-L/zc.buildout-1.2.1-py2.5.egg/zc/buildout/__init__.py'
p466
(lp467
I17
aI19
aI21
aI23
asS'/private/var/folders/tY/tYk-BLGGGju0p1L+Vn3SHU+++TM/-Tmp-/tmprYL_to/zc.buildout-1.2.1-py2.5.egg/zc/buildout/rmtree.py'
p468
(lp469
I65
aI16
aI17
aI18
aI20
aI62
asS'/Users/tobias/projects/appengine/demo/eggs/zope.component-3.7.0-py2.5.egg/zope/component/interfaces.py'
p470
(lp471
I513
aI515
aI517
aI519
aI520
aI521
aI523
aI525
aI527
aI529
aI18
aI20
aI21
aI534
aI24
aI25
aI539
aI28
aI541
aI30
aI543
aI545
aI34
aI547
aI549
aI551
aI41
aI44
aI45
aI558
aI47
aI560
aI561
aI50
aI563
aI565
aI54
aI568
aI57
aI571
aI573
aI575
aI576
aI578
aI580
aI582
aI584
aI585
aI587
aI77
aI591
aI85
aI92
aI100
aI17
aI617
aI106
aI112
aI124
aI125
aI22
aI648
aI876
aI138
aI655
aI656
aI536
aI39
aI161
aI162
aI27
aI179
aI692
aI693
aI31
aI193
aI216
aI217
aI218
aI735
aI742
aI743
aI235
aI553
aI249
aI264
aI783
aI784
aI274
aI284
aI48
aI180
aI297
aI305
aI310
aI315
aI317
aI318
aI831
aI320
aI321
aI323
aI566
aI838
aI329
aI336
aI342
aI349
aI356
aI364
aI370
aI376
aI382
aI64
aI391
aI398
aI400
aI915
aI923
aI925
aI416
aI436
aI456
aI589
aI473
aI475
aI477
aI481
aI482
aI484
aI486
aI488
aI492
aI500
aI502
aI504
aI506
aI508
asS'/Users/tobias/projects/appengine/demo/eggs/zope.event-3.4.1-py2.5.egg/zope/event/__init__.py'
p472
(lp473
I17
aI19
aI21
aI22
asS'/Users/tobias/projects/appengine/bridal/trunk/demo/sdist.py'
p474
(lp475
I1
aI2
aI3
aI4
aI134
aI129
aI8
aI138
aI11
aI140
aI130
aI16
aI17
aI131
aI132
aI26
aI155
aI28
aI176
aI165
aI42
aI7
aI48
aI59
aI83
aI85
aI102
aI103
aI104
aI105
aI106
aI124
aI125
asS'/private/var/folders/tY/tYk-BLGGGju0p1L+Vn3SHU+++TM/-Tmp-/tmpqPMLS9/zc.buildout-1.2.1-py2.5.egg/zc/__init__.py'
p476
(lp477
I1
aI2
asS'/Applications/Utilities/GoogleAppEngineLauncher.app/Contents/Resources/GoogleAppEngine-default.bundle/Contents/Resources/google_appengine/google/appengine/ext/db/__init__.py'
p478
(lp479
I1029
aI2056
aI2057
aI523
aI1039
aI2067
aI2070
aI2071
aI2082
aI479
aI1801
aI2399
aI266
aI268
aI588
aI590
aI269
aI594
aI609
aI610
aI611
aI612
aI613
aI615
aI616
aI617
aI618
aI620
aI621
aI622
aI658
aI659
aI660
aI666
aI676
aI677
aI678
aI679
aI694
aI695
aI711
aI714
aI715
aI716
aI718
aI720
aI722
aI724
aI725
aI214
aI215
aI229
aI234
aI1772
aI1773
aI1775
aI1776
aI1777
aI1778
aI1780
aI1781
aI1782
aI249
aI250
aI251
aI252
aI253
aI254
aI255
aI259
aI260
aI262
aI263
aI264
aI265
aI1802
aI1804
aI1805
aI270
aI272
aI273
aI1810
aI1811
aI1814
aI1331
aI1332
aI2357
aI2358
aI2359
aI2360
aI2361
aI2362
aI2363
aI320
aI322
aI324
aI325
aI2374
aI2375
aI2377
aI1874
aI995
aI2388
aI2390
aI1371
aI1886
aI1887
aI2401
aI1891
aI1893
aI362
aI363
aI364
aI365
aI366
aI367
aI368
aI369
aI370
aI746
aI384
aI385
aI386
aI393
aI396
aI397
aI407
aI408
aI416
aI2043
aI432
aI433
aI436
aI444
aI446
aI1013
aI462
aI1487
aI1488
aI1785
aI990
aI991
aI992
aI993
aI994
aI1507
aI999
aI1020
aI2030
aI2031
aI2032
aI1875
aI501
aI1017
aI1018
aI1019
aI2044
aI1021
aI2047
asS'/Users/tobias/projects/appengine/demo/eggs/zope.tal-3.5.1-py2.5.egg/zope/tal/taldefs.py'
p480
(lp481
I68
aI51
aI131
aI132
aI133
aI135
aI136
aI137
aI138
aI140
aI17
aI18
aI19
aI20
aI150
aI23
aI25
aI154
aI28
aI29
aI30
aI162
aI36
aI37
aI38
aI39
aI40
aI41
aI171
aI44
aI45
aI46
aI47
aI48
aI49
aI50
aI179
aI180
aI53
aI182
aI183
aI52
aI58
aI59
aI60
aI61
aI62
aI63
aI192
aI193
aI194
aI195
aI196
aI54
aI181
aI199
aI26
aI201
aI34
aI64
aI77
aI80
aI185
aI90
aI91
aI93
aI94
aI198
aI96
aI97
aI70
aI100
aI101
aI103
aI188
aI65
aI191
aI189
aI114
aI115
aI117
aI190
asS'/private/var/folders/tY/tYk-BLGGGju0p1L+Vn3SHU+++TM/-Tmp-/tmpbSvrMy/zc.buildout-1.2.1-py2.5.egg/zc/buildout/easy_install.py'
p482
(lp483
I1026
aI1028
aI1030
aI1031
aI1032
aI1035
aI1036
aI1037
aI1038
aI1039
aI1040
aI1041
aI1042
aI1044
aI21
aI1046
aI23
aI24
aI25
aI26
aI27
aI28
aI29
aI30
aI31
aI32
aI33
aI34
aI35
aI36
aI37
aI38
aI39
aI1064
aI1065
aI42
aI1067
aI45
aI46
aI47
aI1073
aI50
aI52
aI54
aI55
aI57
aI1085
aI63
aI64
aI69
aI70
aI71
aI74
aI76
aI78
aI79
aI594
aI1120
aI100
aI102
aI615
aI106
aI107
aI113
aI114
aI628
aI1147
aI132
aI134
aI1160
aI1162
aI140
aI142
aI143
aI1169
aI146
aI148
aI149
aI150
aI151
aI152
aI153
aI154
aI1179
aI1181
aI158
aI159
aI160
aI161
aI162
aI163
aI164
aI165
aI1190
aI684
aI1197
aI1205
aI1206
aI1055
aI1212
aI202
aI750
aI756
aI757
aI758
aI41
aI760
aI761
aI762
aI764
aI770
aI771
aI772
aI773
aI774
aI776
aI777
aI778
aI779
aI780
aI782
aI783
aI784
aI785
aI786
aI788
aI1070
aI795
aI796
aI797
aI798
aI291
aI806
aI807
aI808
aI299
aI815
aI822
aI838
aI839
aI1164
aI43
aI399
aI1088
aI906
aI910
aI911
aI912
aI913
aI914
aI915
aI918
aI919
aI920
aI922
aI924
aI928
aI931
aI932
aI933
aI934
aI935
aI936
aI937
aI938
aI939
aI940
aI157
aI945
aI946
aI951
aI953
aI954
aI956
aI957
aI958
aI961
aI966
aI455
aI968
aI969
aI759
aI1186
aI979
aI980
aI981
aI984
aI473
aI996
aI166
aI1009
asS'/Users/tobias/projects/appengine/bridal/trunk/demo/eggs/nose-0.11.1-py2.5.egg/nose/plugins/doctests.py'
p484
(lp485
I282
aI283
aI284
aI285
aI286
aI287
aI294
aI297
aI298
aI302
aI312
aI313
aI315
aI322
aI196
aI201
aI202
aI203
aI204
aI205
aI206
aI212
aI213
aI214
aI215
aI216
aI219
aI220
aI221
aI222
aI226
asS'/private/var/folders/tY/tYk-BLGGGju0p1L+Vn3SHU+++TM/-Tmp-/tmpI3pO9x/zc.buildout-1.2.1-py2.5.egg/zc/buildout/rmtree.py'
p486
(lp487
I65
aI16
aI17
aI18
aI20
aI62
asS'/Applications/Utilities/GoogleAppEngineLauncher.app/Contents/Resources/GoogleAppEngine-default.bundle/Contents/Resources/google_appengine/google/appengine/datastore/datastore_pb.py'
p488
(lp489
I512
aI409
aI515
aI598
aI519
aI521
aI1709
aI536
aI2541
aI544
aI1712
aI548
aI550
aI553
aI554
aI557
aI1071
aI561
aI1076
aI1077
aI566
aI567
aI1080
aI569
aI570
aI571
aI1084
aI573
aI574
aI575
aI1088
aI1089
aI1803
aI1092
aI1093
aI582
aI583
aI584
aI585
aI586
aI587
aI588
aI590
aI591
aI592
aI593
aI594
aI595
aI596
aI597
aI1110
aI599
aI600
aI601
aI602
aI271
aI604
aI605
aI606
aI607
aI608
aI611
aI612
aI616
aI617
aI619
aI620
aI621
aI623
aI626
aI627
aI628
aI629
aI630
aI631
aI632
aI633
aI634
aI635
aI636
aI637
aI638
aI639
aI640
aI641
aI642
aI645
aI646
aI647
aI648
aI649
aI650
aI651
aI652
aI653
aI654
aI655
aI656
aI659
aI660
aI661
aI662
aI663
aI664
aI668
aI671
aI672
aI673
aI674
aI675
aI676
aI677
aI678
aI679
aI680
aI681
aI1706
aI1707
aI1708
aI685
aI688
aI692
aI695
aI696
aI697
aI460
aI2543
aI1743
aI2339
aI1810
aI1797
aI1798
aI1799
aI1800
aI1801
aI267
aI270
aI1807
aI1808
aI1809
aI274
aI1811
aI1812
aI1813
aI278
aI280
aI1924
aI283
aI284
aI287
aI2336
aI2337
aI291
aI2341
aI295
aI296
aI297
aI2347
aI300
aI301
aI302
aI303
aI304
aI305
aI308
aI309
aI313
aI316
aI317
aI318
aI565
aI322
aI323
aI326
aI327
aI328
aI329
aI330
aI2380
aI2381
aI2384
aI568
aI2386
aI2387
aI572
aI1107
aI319
aI1981
aI576
aI387
aI388
aI1925
aI390
aI577
aI1928
aI393
aI1931
aI396
aI397
aI493
aI400
aI404
aI406
aI2455
aI2456
aI580
aI410
aI2459
aI1923
aI2461
aI2462
aI581
aI2464
aI2465
aI2467
aI389
aI2460
aI2375
aI2477
aI431
aI2376
aI435
aI437
aI438
aI1977
aI1978
aI1979
aI1980
aI1098
aI413
aI2495
aI2496
aI265
aI1099
aI452
aI417
aI2505
aI2492
aI2508
aI2509
aI464
aI2351
aI466
aI467
aI470
aI1103
aI476
aI477
aI478
aI481
aI1806
aI391
aI1073
aI2454
aI2385
aI489
aI2540
aI1106
aI2542
aI495
aI2544
aI498
aI499
aI2548
aI502
aI506
aI508
aI2350
aI511
asS'/private/var/folders/tY/tYk-BLGGGju0p1L+Vn3SHU+++TM/-Tmp-/tmpZHHBGu/zc.buildout-1.2.1-py2.5.egg/zc/buildout/buildout.py'
p490
(lp491
I17
aI19
aI20
aI21
aI22
aI23
aI24
aI25
aI26
aI27
aI28
aI29
aI30
aI31
aI33
aI34
aI35
aI37
aI39
aI40
aI45
aI47
aI48
aI50
aI52
aI54
aI57
aI59
aI61
aI63
aI65
aI68
aI69
aI70
aI71
aI72
aI73
aI74
aI75
aI76
aI77
aI80
aI83
aI85
aI87
aI90
aI91
aI93
aI94
aI95
aI96
aI109
aI110
aI115
aI116
aI117
aI118
aI119
aI120
aI123
aI124
aI127
aI134
aI135
aI136
aI140
aI147
aI148
aI149
aI150
aI151
aI153
aI154
aI156
aI157
aI158
aI159
aI161
aI162
aI163
aI171
aI174
aI175
aI177
aI178
aI179
aI181
aI185
aI186
aI187
aI189
aI190
aI191
aI193
aI195
aI196
aI198
aI199
aI201
aI204
aI205
aI207
aI208
aI210
aI211
aI214
aI215
aI218
aI220
aI221
aI224
aI225
aI227
aI228
aI231
aI232
aI234
aI235
aI236
aI237
aI243
aI244
aI247
aI249
aI250
aI258
aI259
aI267
aI268
aI270
aI272
aI273
aI275
aI277
aI278
aI280
aI283
aI284
aI285
aI286
aI287
aI293
aI294
aI295
aI296
aI303
aI304
aI305
aI306
aI307
aI309
aI311
aI509
aI517
aI537
aI538
aI541
aI542
aI543
aI547
aI596
aI605
aI616
aI638
aI661
aI677
aI688
aI691
aI692
aI693
aI694
aI695
aI696
aI699
aI700
aI701
aI702
aI703
aI705
aI706
aI708
aI709
aI710
aI716
aI717
aI718
aI722
aI723
aI724
aI726
aI806
aI834
aI872
aI874
aI875
aI876
aI877
aI878
aI879
aI881
aI882
aI886
aI887
aI888
aI889
aI891
aI894
aI897
aI900
aI904
aI942
aI944
aI945
aI946
aI947
aI948
aI949
aI951
aI952
aI953
aI956
aI957
aI960
aI961
aI975
aI981
aI982
aI983
aI984
aI985
aI987
aI988
aI989
aI990
aI991
aI993
aI995
aI1008
aI1009
aI1011
aI1012
aI1013
aI1014
aI1047
aI1048
aI1049
aI1050
aI1051
aI1053
aI1054
aI1056
aI1058
aI1059
aI1061
aI1063
aI1075
aI1079
aI1085
aI1105
aI1114
aI1122
aI1123
aI1124
aI1125
aI1126
aI1129
aI1143
aI1151
aI1158
aI1164
aI1167
aI1176
aI1177
aI1178
aI1180
aI1183
aI1185
aI1187
aI1188
aI1189
aI1190
aI1191
aI1192
aI1193
aI1194
aI1195
aI1196
aI1198
aI1204
aI1211
aI1212
aI1215
aI1216
aI1230
aI1240
aI1241
aI1242
aI1246
aI1252
aI1253
aI1255
aI1256
aI1257
aI1258
aI1260
aI1261
aI1263
aI1272
aI1289
aI1296
aI1298
aI1412
aI1413
aI1417
aI1418
aI1421
aI1422
aI1423
aI1424
aI1425
aI1426
aI1427
aI1428
aI1429
aI1430
aI1431
aI1454
aI1455
aI1456
aI1458
aI1459
aI1462
aI1463
aI1482
aI1491
aI1493
aI1496
aI1497
aI1498
aI1499
aI1505
aI1506
aI1507
aI1508
aI1509
aI1533
aI1535
asS'/private/var/folders/tY/tYk-BLGGGju0p1L+Vn3SHU+++TM/-Tmp-/tmpqPMLS9/zc.buildout-1.2.1-py2.5.egg/zc/buildout/__init__.py'
p492
(lp493
I17
aI19
aI21
aI23
asS'/Users/tobias/projects/appengine/bridal/trunk/demo/eggs/coverage-3.0b3-py2.5-macosx-10.3-i386.egg/coverage/collector.py'
p494
(lp495
I144
aI145
aI141
aI142
asS'/Users/tobias/projects/appengine/demo/eggs/zope.tal-3.5.1-py2.5.egg/zope/tal/htmltalparser.py'
p496
(lp497
I17
aI19
aI21
aI23
aI26
aI30
aI31
aI32
aI35
aI39
aI40
aI43
aI46
aI49
aI50
aI51
aI52
aI53
aI54
aI55
aI58
aI60
aI61
aI64
aI66
aI69
aI70
aI72
aI85
aI86
aI88
aI93
aI94
aI96
aI101
aI105
aI106
aI107
aI109
aI110
aI111
aI112
aI113
aI114
aI117
aI127
aI128
aI129
aI130
aI132
aI134
aI135
aI139
aI140
aI141
aI143
aI144
aI149
aI154
aI155
aI156
aI157
aI158
aI160
aI161
aI162
aI164
aI165
aI174
aI175
aI176
aI178
aI179
aI182
aI183
aI184
aI185
aI187
aI188
aI189
aI190
aI191
aI199
aI200
aI201
aI202
aI203
aI204
aI208
aI212
aI213
aI215
aI217
aI219
aI220
aI221
aI222
aI223
aI228
aI229
aI230
aI231
aI233
aI234
aI236
aI239
aI242
aI243
aI245
aI246
aI248
aI249
aI251
aI252
aI256
aI257
aI258
aI259
aI260
aI261
aI262
aI263
aI264
aI266
aI267
aI269
aI270
aI271
aI272
aI275
aI276
aI277
aI278
aI279
aI280
aI281
aI283
aI284
aI285
aI286
aI288
aI289
aI290
aI291
aI292
aI293
aI294
aI295
aI296
aI297
aI298
aI299
aI300
aI301
aI304
aI305
aI310
aI315
aI316
aI318
asS'/private/var/folders/tY/tYk-BLGGGju0p1L+Vn3SHU+++TM/-Tmp-/tmpzzM1c_/zc.buildout-1.2.1-py2.5.egg/zc/__init__.py'
p498
(lp499
I1
aI2
asS'/private/var/folders/tY/tYk-BLGGGju0p1L+Vn3SHU+++TM/-Tmp-/tmpOlOJYi/zc.buildout-1.2.1-py2.5.egg/zc/buildout/buildout.py'
p500
(lp501
I17
aI19
aI20
aI21
aI22
aI23
aI24
aI25
aI26
aI27
aI28
aI29
aI30
aI31
aI33
aI34
aI35
aI37
aI39
aI40
aI45
aI47
aI48
aI50
aI52
aI54
aI57
aI59
aI61
aI63
aI65
aI68
aI69
aI70
aI71
aI72
aI73
aI74
aI75
aI76
aI77
aI80
aI83
aI85
aI87
aI90
aI91
aI93
aI94
aI95
aI96
aI109
aI110
aI115
aI116
aI117
aI118
aI119
aI120
aI123
aI124
aI127
aI134
aI135
aI136
aI140
aI147
aI148
aI149
aI150
aI151
aI153
aI154
aI156
aI157
aI158
aI159
aI161
aI162
aI163
aI171
aI174
aI175
aI177
aI178
aI179
aI181
aI185
aI186
aI187
aI189
aI190
aI191
aI193
aI195
aI196
aI198
aI199
aI201
aI204
aI205
aI207
aI208
aI210
aI211
aI214
aI215
aI218
aI220
aI221
aI224
aI225
aI227
aI228
aI231
aI232
aI234
aI235
aI236
aI237
aI243
aI244
aI247
aI249
aI250
aI258
aI259
aI267
aI268
aI270
aI272
aI273
aI275
aI277
aI278
aI280
aI283
aI284
aI285
aI286
aI287
aI293
aI294
aI295
aI296
aI303
aI304
aI305
aI306
aI307
aI309
aI311
aI509
aI517
aI537
aI538
aI541
aI542
aI543
aI547
aI596
aI605
aI616
aI638
aI661
aI677
aI688
aI691
aI692
aI693
aI694
aI695
aI696
aI699
aI700
aI701
aI702
aI703
aI705
aI706
aI708
aI709
aI710
aI716
aI717
aI718
aI722
aI723
aI724
aI726
aI806
aI834
aI872
aI874
aI875
aI876
aI877
aI878
aI879
aI881
aI882
aI886
aI887
aI888
aI889
aI891
aI894
aI897
aI900
aI904
aI942
aI944
aI945
aI946
aI947
aI948
aI949
aI951
aI952
aI953
aI956
aI957
aI960
aI961
aI975
aI981
aI982
aI983
aI984
aI985
aI987
aI988
aI989
aI990
aI991
aI993
aI995
aI1008
aI1009
aI1011
aI1012
aI1013
aI1014
aI1047
aI1048
aI1049
aI1050
aI1051
aI1053
aI1054
aI1056
aI1058
aI1059
aI1061
aI1063
aI1075
aI1079
aI1085
aI1105
aI1114
aI1122
aI1123
aI1124
aI1125
aI1126
aI1129
aI1143
aI1151
aI1158
aI1164
aI1167
aI1176
aI1177
aI1178
aI1180
aI1183
aI1185
aI1187
aI1188
aI1189
aI1190
aI1191
aI1192
aI1193
aI1194
aI1195
aI1196
aI1198
aI1204
aI1211
aI1212
aI1215
aI1216
aI1230
aI1240
aI1241
aI1242
aI1246
aI1252
aI1253
aI1255
aI1256
aI1257
aI1258
aI1260
aI1261
aI1263
aI1272
aI1289
aI1296
aI1298
aI1412
aI1413
aI1417
aI1418
aI1421
aI1422
aI1423
aI1424
aI1425
aI1426
aI1427
aI1428
aI1429
aI1430
aI1431
aI1454
aI1455
aI1456
aI1458
aI1459
aI1462
aI1463
aI1482
aI1491
aI1493
aI1496
aI1497
aI1498
aI1499
aI1505
aI1506
aI1507
aI1508
aI1509
aI1533
aI1535
asS'/private/var/folders/tY/tYk-BLGGGju0p1L+Vn3SHU+++TM/-Tmp-/tmprYL_to/zc.buildout-1.2.1-py2.5.egg/zc/__init__.py'
p502
(lp503
I1
aI2
asS'/Applications/Utilities/GoogleAppEngineLauncher.app/Contents/Resources/GoogleAppEngine-default.bundle/Contents/Resources/google_appengine/google/appengine/api/apiproxy_stub.py'
p504
(lp505
I70
aI73
aI76
aI77
aI79
aI80
aI49
aI50
asS'/Users/tobias/projects/appengine/bridal/trunk/demo/package_index.py'
p506
(lp507
I1
aI642
aI3
aI4
aI5
aI6
aI7
aI648
aI10
aI651
aI12
aI13
aI654
aI15
aI144
aI145
aI19
aI20
aI149
aI534
aI535
aI152
aI667
aI412
aI150
aI288
aI27
aI165
aI678
aI42
aI355
aI302
aI48
aI659
aI23
aI698
aI571
aI60
aI317
aI575
aI2
aI329
aI588
aI206
aI661
aI83
aI340
aI24
aI473
aI91
aI222
aI16
aI739
aI294
aI742
aI232
aI361
aI620
aI493
aI239
aI616
aI370
aI627
aI247
aI124
aI127
asS'/Users/tobias/projects/appengine/bridal/trunk/demo/eggs/zope.tales-3.4.0-py2.5.egg/zope/tales/pythonexpr.py'
p508
(lp509
I64
aI34
aI68
aI69
aI70
aI75
aI17
aI19
aI20
aI56
aI61
aI31
asS'/private/var/folders/tY/tYk-BLGGGju0p1L+Vn3SHU+++TM/-Tmp-/tmpFS31q8/zc.buildout-1.2.1-py2.5.egg/zc/__init__.py'
p510
(lp511
I1
aI2
asS'/private/var/folders/tY/tYk-BLGGGju0p1L+Vn3SHU+++TM/-Tmp-/tmpFS31q8/zc.buildout-1.2.1-py2.5.egg/zc/buildout/rmtree.py'
p512
(lp513
I65
aI16
aI17
aI18
aI20
aI62
asS'/Users/tobias/projects/appengine/demo/dist.py'
p514
(lp515
I68
aI1
aI258
aI3
aI516
aI389
aI6
aI7
aI8
aI9
aI10
aI11
aI780
aI13
aI493
aI657
aI19
aI21
aI534
aI25
aI411
aI29
aI5
aI288
aI27
aI42
aI189
aI434
aI51
aI31
aI452
aI191
aI193
aI706
aI707
aI708
aI329
aI206
aI83
aI124
aI471
aI89
aI347
aI378
aI735
aI98
aI739
aI228
aI359
aI616
aI105
aI235
aI109
aI239
aI370
aI374
aI247
aI575
aI762
aI635
aI636
aI4
asS'/private/var/folders/tY/tYk-BLGGGju0p1L+Vn3SHU+++TM/-Tmp-/tmpzzM1c_/zc.buildout-1.2.1-py2.5.egg/zc/buildout/easy_install.py'
p516
(lp517
I1026
aI1028
aI1030
aI1031
aI1032
aI1035
aI1036
aI1037
aI1038
aI1039
aI1040
aI1041
aI1042
aI1044
aI21
aI1046
aI23
aI24
aI25
aI26
aI27
aI28
aI29
aI30
aI1055
aI32
aI33
aI34
aI35
aI36
aI37
aI38
aI39
aI1064
aI1065
aI42
aI1067
aI45
aI1070
aI47
aI1073
aI50
aI52
aI54
aI55
aI57
aI1085
aI63
aI64
aI69
aI70
aI71
aI74
aI76
aI78
aI79
aI594
aI1120
aI100
aI102
aI615
aI106
aI107
aI113
aI114
aI628
aI1147
aI132
aI134
aI1160
aI1162
aI1164
aI142
aI143
aI1169
aI146
aI148
aI149
aI150
aI151
aI152
aI153
aI154
aI1179
aI1181
aI158
aI159
aI160
aI161
aI1186
aI163
aI164
aI165
aI166
aI684
aI1197
aI1205
aI1206
aI31
aI1212
aI202
aI750
aI756
aI757
aI758
aI41
aI760
aI761
aI762
aI764
aI770
aI771
aI772
aI773
aI774
aI776
aI777
aI778
aI779
aI780
aI782
aI783
aI784
aI785
aI786
aI788
aI46
aI795
aI796
aI797
aI798
aI291
aI806
aI807
aI808
aI299
aI815
aI822
aI838
aI839
aI140
aI43
aI911
aI1088
aI906
aI910
aI399
aI912
aI913
aI914
aI915
aI918
aI919
aI920
aI922
aI924
aI928
aI931
aI932
aI933
aI934
aI935
aI936
aI937
aI938
aI939
aI940
aI157
aI945
aI946
aI951
aI953
aI954
aI956
aI957
aI958
aI961
aI966
aI455
aI968
aI969
aI759
aI162
aI979
aI980
aI981
aI984
aI473
aI996
aI1190
aI1009
asS'/private/var/folders/tY/tYk-BLGGGju0p1L+Vn3SHU+++TM/-Tmp-/tmpUOY8un/zc.buildout-1.2.1-py2.5.egg/zc/buildout/easy_install.py'
p518
(lp519
I1026
aI1028
aI21
aI23
aI24
aI25
aI26
aI27
aI28
aI29
aI30
aI31
aI32
aI33
aI34
aI35
aI36
aI37
aI38
aI39
aI41
aI42
aI1067
aI45
aI46
aI47
aI1073
aI50
aI52
aI54
aI55
aI57
aI1085
aI63
aI1088
aI69
aI70
aI71
aI74
aI76
aI78
aI79
aI594
aI1120
aI100
aI102
aI615
aI106
aI107
aI113
aI114
aI628
aI1147
aI132
aI134
aI1160
aI1162
aI140
aI142
aI143
aI1169
aI146
aI148
aI149
aI150
aI151
aI152
aI153
aI154
aI1179
aI1181
aI158
aI159
aI160
aI161
aI162
aI163
aI164
aI165
aI1190
aI684
aI1197
aI1205
aI1206
aI1212
aI202
aI750
aI756
aI764
aI770
aI776
aI782
aI788
aI1070
aI795
aI796
aI797
aI798
aI291
aI806
aI807
aI808
aI299
aI815
aI822
aI838
aI839
aI1164
aI399
aI64
aI906
aI910
aI911
aI912
aI913
aI914
aI915
aI157
aI455
aI968
aI1186
aI984
aI473
aI996
aI166
aI1009
asS'/private/var/folders/tY/tYk-BLGGGju0p1L+Vn3SHU+++TM/-Tmp-/tmptSkiSH/zc.buildout-1.2.1-py2.5.egg/zc/buildout/rmtree.py'
p520
(lp521
I65
aI16
aI17
aI18
aI20
aI62
asS'/Users/tobias/projects/appengine/bridal/trunk/demo/eggs/nose-0.11.1-py2.5.egg/nose/plugins/errorclass.py'
p522
(lp523
I134
aI135
aI137
aI138
aI142
aI144
aI145
aI146
aI147
aI148
asS'/Users/tobias/projects/appengine/bridal/trunk/demo/eggs/coverage-3.0b3-py2.5-macosx-10.3-i386.egg/coverage/control.py'
p524
(lp525
I123
asS'/private/var/folders/tY/tYk-BLGGGju0p1L+Vn3SHU+++TM/-Tmp-/tmpI3pO9x/zc.buildout-1.2.1-py2.5.egg/zc/__init__.py'
p526
(lp527
I1
aI2
asS'/private/var/folders/tY/tYk-BLGGGju0p1L+Vn3SHU+++TM/-Tmp-/tmpOlOJYi/zc.buildout-1.2.1-py2.5.egg/zc/buildout/__init__.py'
p528
(lp529
I17
aI19
aI21
aI23
asS'/Applications/Utilities/GoogleAppEngineLauncher.app/Contents/Resources/GoogleAppEngine-default.bundle/Contents/Resources/google_appengine/google/appengine/api/memcache/memcache_stub.py'
p530
(lp531
I109
aI110
aI111
aI113
aI117
aI118
aI119
aI120
asS'/private/var/folders/tY/tYk-BLGGGju0p1L+Vn3SHU+++TM/-Tmp-/tmp8RpW-L/zc.buildout-1.2.1-py2.5.egg/zc/buildout/easy_install.py'
p532
(lp533
I1026
aI1028
aI1030
aI1031
aI1032
aI1035
aI1036
aI1037
aI1038
aI1039
aI1040
aI1041
aI1042
aI1044
aI21
aI1046
aI23
aI24
aI25
aI26
aI27
aI28
aI29
aI30
aI31
aI32
aI33
aI34
aI35
aI36
aI37
aI38
aI39
aI1064
aI1065
aI42
aI1067
aI45
aI1070
aI47
aI1073
aI50
aI52
aI54
aI55
aI57
aI1085
aI63
aI64
aI69
aI70
aI71
aI74
aI76
aI78
aI79
aI594
aI1120
aI100
aI102
aI615
aI106
aI107
aI113
aI114
aI628
aI1147
aI132
aI134
aI1160
aI1162
aI140
aI142
aI143
aI1169
aI146
aI148
aI149
aI150
aI151
aI152
aI153
aI154
aI1179
aI157
aI158
aI159
aI160
aI161
aI162
aI163
aI164
aI165
aI166
aI684
aI1197
aI1205
aI1206
aI1055
aI1212
aI202
aI750
aI756
aI757
aI758
aI41
aI760
aI761
aI762
aI764
aI770
aI771
aI772
aI773
aI774
aI776
aI777
aI778
aI779
aI780
aI782
aI783
aI784
aI785
aI786
aI788
aI46
aI795
aI796
aI797
aI798
aI291
aI806
aI807
aI808
aI299
aI815
aI822
aI838
aI839
aI1164
aI43
aI911
aI1088
aI906
aI910
aI399
aI912
aI913
aI914
aI915
aI918
aI919
aI920
aI922
aI924
aI928
aI931
aI932
aI933
aI934
aI935
aI936
aI937
aI938
aI939
aI940
aI1181
aI945
aI946
aI951
aI953
aI954
aI956
aI957
aI958
aI961
aI966
aI455
aI968
aI969
aI759
aI1186
aI979
aI980
aI981
aI984
aI473
aI996
aI1190
aI1009
asS'/Users/tobias/projects/appengine/demo/eggs/zope.i18nmessageid-3.4.3-py2.5-macosx-10.3-i386.egg/zope/i18nmessageid/__init__.py'
p534
(lp535
I17
aI18
aI21
asS'/private/var/folders/tY/tYk-BLGGGju0p1L+Vn3SHU+++TM/-Tmp-/tmpF824nt/zc.buildout-1.2.1-py2.5.egg/zc/buildout/buildout.py'
p536
(lp537
I17
aI19
aI20
aI21
aI22
aI23
aI24
aI25
aI26
aI27
aI28
aI29
aI30
aI31
aI33
aI34
aI35
aI37
aI39
aI40
aI45
aI47
aI48
aI50
aI52
aI54
aI57
aI59
aI61
aI63
aI65
aI68
aI69
aI70
aI71
aI72
aI73
aI74
aI75
aI76
aI77
aI80
aI83
aI85
aI87
aI90
aI91
aI93
aI94
aI95
aI96
aI109
aI110
aI115
aI116
aI117
aI118
aI119
aI120
aI123
aI124
aI127
aI134
aI135
aI136
aI140
aI147
aI148
aI149
aI150
aI151
aI153
aI154
aI156
aI157
aI158
aI159
aI161
aI162
aI163
aI171
aI174
aI175
aI177
aI178
aI179
aI181
aI185
aI186
aI187
aI189
aI190
aI191
aI193
aI195
aI196
aI198
aI199
aI201
aI204
aI205
aI207
aI208
aI210
aI211
aI214
aI215
aI218
aI220
aI221
aI224
aI225
aI227
aI228
aI231
aI232
aI234
aI235
aI236
aI237
aI243
aI244
aI247
aI249
aI250
aI258
aI259
aI267
aI268
aI270
aI272
aI273
aI275
aI277
aI278
aI280
aI283
aI284
aI285
aI286
aI287
aI293
aI294
aI295
aI296
aI303
aI304
aI305
aI306
aI307
aI309
aI311
aI509
aI517
aI537
aI538
aI541
aI542
aI543
aI547
aI596
aI605
aI616
aI638
aI661
aI677
aI688
aI691
aI692
aI693
aI694
aI695
aI696
aI699
aI700
aI701
aI702
aI703
aI705
aI706
aI708
aI709
aI710
aI716
aI717
aI718
aI722
aI723
aI724
aI726
aI806
aI834
aI872
aI874
aI875
aI876
aI877
aI878
aI879
aI881
aI882
aI886
aI887
aI888
aI889
aI891
aI894
aI897
aI900
aI904
aI942
aI944
aI945
aI946
aI947
aI948
aI949
aI951
aI952
aI953
aI956
aI957
aI960
aI961
aI975
aI981
aI982
aI983
aI984
aI985
aI987
aI988
aI989
aI990
aI991
aI993
aI995
aI1008
aI1009
aI1011
aI1012
aI1013
aI1014
aI1047
aI1048
aI1049
aI1050
aI1051
aI1053
aI1054
aI1056
aI1058
aI1059
aI1061
aI1063
aI1075
aI1079
aI1085
aI1105
aI1114
aI1122
aI1123
aI1124
aI1125
aI1126
aI1129
aI1143
aI1151
aI1158
aI1164
aI1167
aI1176
aI1177
aI1178
aI1180
aI1183
aI1185
aI1187
aI1188
aI1189
aI1190
aI1191
aI1192
aI1193
aI1194
aI1195
aI1196
aI1198
aI1204
aI1211
aI1212
aI1215
aI1216
aI1230
aI1240
aI1241
aI1242
aI1246
aI1252
aI1253
aI1255
aI1256
aI1257
aI1258
aI1260
aI1261
aI1263
aI1272
aI1289
aI1296
aI1298
aI1412
aI1413
aI1417
aI1418
aI1421
aI1422
aI1423
aI1424
aI1425
aI1426
aI1427
aI1428
aI1429
aI1430
aI1431
aI1454
aI1455
aI1456
aI1458
aI1459
aI1462
aI1463
aI1482
aI1491
aI1493
aI1496
aI1497
aI1498
aI1499
aI1505
aI1506
aI1507
aI1508
aI1509
aI1533
aI1535
asS'/private/var/folders/tY/tYk-BLGGGju0p1L+Vn3SHU+++TM/-Tmp-/tmpbSvrMy/zc.buildout-1.2.1-py2.5.egg/zc/buildout/rmtree.py'
p538
(lp539
I65
aI16
aI17
aI18
aI20
aI62
asS'/private/var/folders/tY/tYk-BLGGGju0p1L+Vn3SHU+++TM/-Tmp-/tmpI3pO9x/zc.buildout-1.2.1-py2.5.egg/zc/buildout/buildout.py'
p540
(lp541
I17
aI19
aI20
aI21
aI22
aI23
aI24
aI25
aI26
aI27
aI28
aI29
aI30
aI31
aI33
aI34
aI35
aI37
aI39
aI40
aI45
aI47
aI48
aI50
aI52
aI54
aI57
aI59
aI61
aI63
aI65
aI68
aI69
aI70
aI71
aI72
aI73
aI74
aI75
aI76
aI77
aI80
aI83
aI85
aI87
aI90
aI91
aI93
aI94
aI95
aI96
aI109
aI110
aI115
aI116
aI117
aI118
aI119
aI120
aI123
aI124
aI127
aI134
aI135
aI136
aI140
aI147
aI148
aI149
aI150
aI151
aI153
aI154
aI156
aI157
aI158
aI159
aI161
aI162
aI163
aI171
aI174
aI175
aI177
aI178
aI179
aI181
aI185
aI186
aI187
aI189
aI190
aI191
aI193
aI195
aI196
aI198
aI199
aI201
aI204
aI205
aI207
aI208
aI210
aI211
aI214
aI215
aI218
aI220
aI221
aI224
aI225
aI227
aI228
aI231
aI232
aI234
aI235
aI236
aI237
aI243
aI244
aI247
aI249
aI250
aI258
aI259
aI267
aI268
aI270
aI272
aI273
aI275
aI277
aI278
aI280
aI283
aI284
aI285
aI286
aI287
aI293
aI294
aI295
aI296
aI303
aI304
aI305
aI306
aI307
aI309
aI311
aI509
aI517
aI537
aI538
aI541
aI542
aI543
aI547
aI596
aI605
aI616
aI638
aI661
aI677
aI688
aI691
aI692
aI693
aI694
aI695
aI696
aI699
aI700
aI701
aI702
aI703
aI705
aI706
aI708
aI709
aI710
aI716
aI717
aI718
aI722
aI723
aI724
aI726
aI806
aI834
aI872
aI874
aI875
aI876
aI877
aI878
aI879
aI881
aI882
aI886
aI887
aI888
aI889
aI891
aI894
aI897
aI900
aI904
aI942
aI944
aI945
aI946
aI947
aI948
aI949
aI951
aI952
aI953
aI956
aI957
aI960
aI961
aI975
aI981
aI982
aI983
aI984
aI985
aI987
aI988
aI989
aI990
aI991
aI993
aI995
aI1008
aI1009
aI1011
aI1012
aI1013
aI1014
aI1047
aI1048
aI1049
aI1050
aI1051
aI1053
aI1054
aI1056
aI1058
aI1059
aI1061
aI1063
aI1075
aI1079
aI1085
aI1105
aI1114
aI1122
aI1123
aI1124
aI1125
aI1126
aI1129
aI1143
aI1151
aI1158
aI1164
aI1167
aI1176
aI1177
aI1178
aI1180
aI1183
aI1185
aI1187
aI1188
aI1189
aI1190
aI1191
aI1192
aI1193
aI1194
aI1195
aI1196
aI1198
aI1204
aI1211
aI1212
aI1215
aI1216
aI1230
aI1240
aI1241
aI1242
aI1246
aI1252
aI1253
aI1255
aI1256
aI1257
aI1258
aI1260
aI1261
aI1263
aI1272
aI1289
aI1296
aI1298
aI1412
aI1413
aI1417
aI1418
aI1421
aI1422
aI1423
aI1424
aI1425
aI1426
aI1427
aI1428
aI1429
aI1430
aI1431
aI1454
aI1455
aI1456
aI1458
aI1459
aI1462
aI1463
aI1482
aI1491
aI1493
aI1496
aI1497
aI1498
aI1499
aI1505
aI1506
aI1507
aI1508
aI1509
aI1533
aI1535
asS'/Applications/Utilities/GoogleAppEngineLauncher.app/Contents/Resources/GoogleAppEngine-default.bundle/Contents/Resources/google_appengine/google/appengine/api/images/images_stub.py'
p542
(lp543
I18
aI22
aI23
aI25
aI26
aI29
aI30
asS'/private/var/folders/tY/tYk-BLGGGju0p1L+Vn3SHU+++TM/-Tmp-/tmpFS31q8/zc.buildout-1.2.1-py2.5.egg/zc/buildout/__init__.py'
p544
(lp545
I17
aI19
aI21
aI23
asS'/Users/tobias/projects/appengine/bridal/trunk/demo/eggs/zope.tal-3.5.1-py2.5.egg/zope/tal/xmlparser.py'
p546
(lp547
I19
aI20
aI23
aI25
aI28
aI29
aI30
aI31
aI32
aI33
aI34
aI35
aI36
aI37
aI38
aI39
aI40
aI41
aI42
aI43
aI44
aI45
aI46
aI47
aI50
aI67
aI73
aI76
aI84
aI88
aI91
aI94
asS'/private/var/folders/tY/tYk-BLGGGju0p1L+Vn3SHU+++TM/-Tmp-/tmpOlOJYi/zc.buildout-1.2.1-py2.5.egg/zc/buildout/easy_install.py'
p548
(lp549
I1026
aI1028
aI1030
aI1031
aI1032
aI1035
aI1036
aI1037
aI1038
aI1039
aI1040
aI1041
aI1042
aI1044
aI21
aI1046
aI23
aI24
aI25
aI26
aI27
aI28
aI29
aI30
aI1055
aI32
aI33
aI34
aI35
aI36
aI37
aI38
aI39
aI1064
aI1065
aI42
aI43
aI45
aI1070
aI47
aI1073
aI50
aI52
aI54
aI55
aI57
aI1085
aI63
aI1088
aI69
aI70
aI71
aI74
aI76
aI78
aI79
aI594
aI1120
aI100
aI102
aI615
aI106
aI107
aI113
aI114
aI628
aI1147
aI132
aI134
aI1160
aI1162
aI1164
aI142
aI143
aI1169
aI146
aI148
aI149
aI150
aI151
aI152
aI153
aI154
aI1179
aI157
aI158
aI159
aI160
aI161
aI162
aI163
aI164
aI165
aI1190
aI684
aI1197
aI1205
aI1206
aI31
aI1212
aI202
aI750
aI756
aI757
aI758
aI41
aI760
aI761
aI762
aI764
aI770
aI771
aI772
aI773
aI774
aI776
aI777
aI778
aI779
aI780
aI782
aI783
aI784
aI785
aI786
aI788
aI46
aI795
aI796
aI797
aI798
aI291
aI806
aI807
aI808
aI299
aI815
aI1067
aI822
aI838
aI839
aI140
aI911
aI64
aI906
aI910
aI399
aI912
aI913
aI914
aI915
aI918
aI919
aI920
aI922
aI924
aI928
aI931
aI932
aI933
aI934
aI935
aI936
aI937
aI938
aI939
aI940
aI1181
aI945
aI946
aI951
aI953
aI954
aI956
aI957
aI958
aI961
aI966
aI455
aI968
aI969
aI759
aI1186
aI979
aI980
aI981
aI984
aI473
aI996
aI166
aI1009
asS'/Applications/Utilities/GoogleAppEngineLauncher.app/Contents/Resources/GoogleAppEngine-default.bundle/Contents/Resources/google_appengine/google/appengine/datastore/entity_pb.py'
p550
(lp551
I254
aI256
aI259
aI260
aI267
aI269
aI272
aI273
aI280
aI293
aI295
aI298
aI299
aI306
aI308
aI311
aI312
aI319
aI323
aI324
aI325
aI326
aI327
aI328
aI345
aI346
aI350
aI354
aI358
aI361
aI362
aI363
aI364
aI365
aI366
aI367
aI377
aI378
aI379
aI380
aI381
aI384
aI385
aI386
aI387
aI388
aI547
aI548
aI550
aI553
aI554
aI557
aI561
aI570
aI574
aI576
aI579
aI580
aI583
aI587
aI596
aI600
aI614
aI618
aI621
aI622
aI623
aI624
aI626
aI627
aI629
aI632
aI636
aI650
aI654
aI658
aI659
aI660
aI661
aI662
aI663
aI664
aI665
aI686
aI687
aI688
aI689
aI690
aI693
aI694
aI695
aI696
aI697
aI698
aI699
aI700
aI701
aI704
aI705
aI706
aI707
aI708
aI709
aI710
aI713
aI714
aI715
aI716
aI719
aI720
aI721
aI722
aI725
aI729
aI730
aI731
aI732
aI733
aI925
aI926
aI928
aI931
aI932
aI935
aI939
aI948
aI952
aI954
aI957
aI958
aI961
aI965
aI967
aI969
aI971
aI973
aI975
aI978
aI979
aI982
aI986
aI990
aI991
aI992
aI993
aI994
aI995
aI998
aI999
aI1000
aI1001
aI1002
aI1003
aI1012
aI1013
aI1017
aI1021
aI1022
aI1026
aI1029
aI1030
aI1031
aI1032
aI1033
aI1034
aI1037
aI1038
aI1039
aI1040
aI1041
aI1044
aI1045
aI1046
aI1047
aI1050
aI1051
aI1052
aI1053
aI1054
aI1055
aI1056
aI1135
aI1137
aI1140
aI1141
aI1144
aI1148
aI1150
aI1153
aI1154
aI1157
aI1161
aI1170
aI1174
aI1178
aI1179
aI1180
aI1181
aI1184
aI1185
aI1186
aI1187
aI1194
aI1195
aI1199
aI1202
aI1203
aI1204
aI1205
aI1206
aI1209
aI1210
aI1211
aI1214
aI1215
aI1216
aI1217
aI1218
aI1219
aI1250
aI1251
aI1253
aI1254
aI1257
aI1263
aI1264
aI1265
aI1268
aI1271
aI1272
aI1275
aI1276
aI1277
aI1278
aI1282
aI1283
aI1284
aI1285
aI1288
aI1289
aI1290
aI1291
aI1294
aI1297
aI1298
aI1299
aI1300
aI1357
aI1358
aI1360
aI1363
aI1364
aI1367
aI1368
aI1369
aI1371
aI1373
aI1375
aI1377
aI1379
aI1383
aI1384
aI1385
aI1388
aI1389
aI1390
aI1391
aI1392
aI1396
aI1397
aI1401
aI1405
aI1406
aI1409
aI1410
aI1411
aI1412
aI1415
aI1416
aI1419
aI1420
aI1421
aI1422
aI1423
aI1741
aI1742
aI1743
aI1744
aI1745
aI1746
aI1748
aI1750
aI1752
aI1754
aI1756
aI1758
aI1760
aI1762
aI1776
aI1780
aI1789
aI1793
aI1802
aI1806
aI1808
aI1809
aI1812
aI1818
aI1819
aI1820
aI1823
aI1824
aI1825
aI1839
aI1842
aI1843
aI1844
aI1845
aI1846
aI1847
aI1848
aI1849
aI1852
aI1853
aI1872
aI1873
aI1877
aI1878
aI1882
aI1883
aI1884
aI1885
aI1886
aI1888
aI1891
aI1892
aI1893
aI1894
aI1895
aI1896
aI1897
aI1898
aI1899
aI1900
aI1901
aI1904
aI1905
aI1906
aI1907
aI1908
aI1909
aI1910
aI1913
aI1916
aI1919
aI1920
aI1921
aI1922
aI1923
aI1924
aI1925
aI1926
aI1930
aI1931
aI1932
aI1933
asS'/Users/tobias/projects/appengine/bridal/trunk/demo/eggs/zope.component-3.7.0-py2.5.egg/zope/component/registry.py'
p552
(lp553
I17
aI19
aI21
aI22
aI23
aI24
aI25
aI26
aI27
aI29
aI30
aI31
aI32
aI33
aI34
aI35
aI36
aI37
aI38
aI39
aI40
aI42
aI44
aI46
aI47
aI48
aI49
aI50
aI51
aI53
aI56
aI60
aI61
aI62
aI63
aI64
aI66
aI70
aI72
aI73
aI74
aI75
aI76
aI78
aI79
aI80
aI83
aI84
aI115
aI151
aI156
aI159
aI165
aI169
aI172
aI173
aI174
aI176
aI178
aI179
aI181
aI182
aI183
aI184
aI188
aI189
aI215
aI221
aI224
aI230
aI231
aI232
aI234
aI240
aI249
aI250
aI251
aI268
aI272
aI273
aI314
aI318
aI319
aI320
aI334
aI338
aI372
aI376
aI384
aI393
aI394
aI395
aI403
aI407
aI408
aI409
aI411
aI418
aI419
aI422
aI424
aI426
aI431
aI440
aI443
aI445
aI447
aI450
aI452
aI461
aI464
aI466
aI468
aI470
aI472
aI476
aI480
aI482
aI492
aI496
aI500
aI504
asS'/Users/tobias/projects/appengine/demo/eggs/zope.tales-3.4.0-py2.5.egg/zope/tales/interfaces.py'
p554
(lp555
I17
aI18
aI20
aI21
aI26
aI28
aI30
aI33
aI38
aI40
aI45
aI46
aI48
aI59
aI61
aI65
aI69
aI73
aI77
aI83
aI87
aI91
aI95
aI99
aI103
aI107
aI111
asS'/Users/tobias/projects/appengine/demo/src/demo/__init__.py'
p556
(lp557
I1
asS'/Users/tobias/projects/appengine/bridal/trunk/demo/setopt.py'
p558
(lp559
I1
aI130
aI131
aI4
aI133
aI134
aI7
aI136
aI10
aI2
aI145
aI3
aI152
aI132
aI5
aI42
aI138
aI83
aI84
aI88
aI90
aI92
aI96
aI99
aI104
aI124
aI125
aI127
asS'/Applications/Utilities/GoogleAppEngineLauncher.app/Contents/Resources/GoogleAppEngine-default.bundle/Contents/Resources/google_appengine/google/appengine/api/yaml_listener.py'
p560
(lp561
I129
aI164
aI133
aI198
aI199
aI200
aI201
aI202
aI145
aI148
aI149
aI132
aI218
aI166
aI134
aI165
asS'/Users/tobias/projects/appengine/demo/eggs/nose-0.11.1-py2.5.egg/nose/plugins/capture.py'
p562
(lp563
I98
aI99
aI68
aI73
aI74
aI75
aI108
aI109
aI79
aI57
aI58
aI93
aI94
aI95
asS'/private/var/folders/tY/tYk-BLGGGju0p1L+Vn3SHU+++TM/-Tmp-/tmpWPFu1Z/zc.buildout-1.2.1-py2.5.egg/zc/buildout/__init__.py'
p564
(lp565
I17
aI19
aI21
aI23
asS'/private/var/folders/tY/tYk-BLGGGju0p1L+Vn3SHU+++TM/-Tmp-/tmpym6itQ/zc.buildout-1.2.1-py2.5.egg/zc/buildout/easy_install.py'
p566
(lp567
I1026
aI1028
aI1030
aI1031
aI1032
aI1035
aI1036
aI1037
aI1038
aI1039
aI1040
aI1041
aI1042
aI1044
aI21
aI1046
aI23
aI24
aI25
aI26
aI27
aI28
aI29
aI30
aI1055
aI32
aI33
aI34
aI35
aI36
aI37
aI38
aI39
aI1064
aI1065
aI42
aI1067
aI45
aI1070
aI47
aI1073
aI50
aI52
aI54
aI55
aI57
aI1085
aI63
aI1088
aI69
aI70
aI71
aI74
aI76
aI78
aI79
aI594
aI1120
aI100
aI102
aI615
aI106
aI107
aI113
aI114
aI628
aI1147
aI132
aI134
aI1160
aI1162
aI1164
aI142
aI143
aI1169
aI146
aI148
aI149
aI150
aI151
aI152
aI153
aI154
aI1179
aI1181
aI158
aI159
aI160
aI161
aI1186
aI163
aI164
aI165
aI166
aI684
aI1197
aI1205
aI1206
aI31
aI1212
aI202
aI750
aI756
aI757
aI758
aI41
aI760
aI761
aI762
aI764
aI770
aI771
aI772
aI773
aI774
aI776
aI777
aI778
aI779
aI780
aI782
aI783
aI784
aI785
aI786
aI788
aI46
aI795
aI796
aI797
aI798
aI291
aI806
aI807
aI808
aI299
aI815
aI822
aI838
aI839
aI140
aI43
aI911
aI64
aI906
aI910
aI399
aI912
aI913
aI914
aI915
aI918
aI919
aI920
aI922
aI924
aI928
aI931
aI932
aI933
aI934
aI935
aI936
aI937
aI938
aI939
aI940
aI157
aI945
aI946
aI951
aI953
aI954
aI956
aI957
aI958
aI961
aI966
aI455
aI968
aI969
aI759
aI162
aI979
aI980
aI981
aI984
aI473
aI996
aI1190
aI1009
asS'/private/var/folders/tY/tYk-BLGGGju0p1L+Vn3SHU+++TM/-Tmp-/tmp1FPDfZ/zc.buildout-1.2.1-py2.5.egg/zc/__init__.py'
p568
(lp569
I1
aI2
asS'/Users/tobias/projects/appengine/bridal/trunk/demo/dist.py'
p570
(lp571
I68
aI1
aI258
aI3
aI516
aI389
aI6
aI7
aI8
aI9
aI10
aI11
aI780
aI13
aI493
aI657
aI19
aI21
aI534
aI25
aI411
aI29
aI5
aI288
aI27
aI42
aI434
aI51
aI31
aI189
aI191
aI193
aI706
aI707
aI708
aI329
aI206
aI83
aI124
aI471
aI89
aI347
aI378
aI735
aI98
aI739
aI228
aI359
aI452
aI105
aI235
aI109
aI239
aI616
aI370
aI374
aI247
aI575
aI762
aI635
aI636
aI4
asS'/private/var/folders/tY/tYk-BLGGGju0p1L+Vn3SHU+++TM/-Tmp-/tmpg40IKD/zc.buildout-1.2.1-py2.5.egg/zc/buildout/buildout.py'
p572
(lp573
I17
aI19
aI20
aI21
aI22
aI23
aI24
aI25
aI26
aI27
aI28
aI29
aI30
aI31
aI33
aI34
aI35
aI37
aI39
aI40
aI45
aI47
aI48
aI50
aI52
aI54
aI57
aI59
aI61
aI63
aI65
aI68
aI69
aI70
aI71
aI72
aI73
aI74
aI75
aI76
aI77
aI80
aI83
aI85
aI87
aI90
aI91
aI93
aI94
aI95
aI96
aI109
aI110
aI115
aI116
aI117
aI118
aI119
aI120
aI123
aI124
aI127
aI134
aI135
aI136
aI140
aI147
aI148
aI149
aI150
aI151
aI153
aI154
aI156
aI157
aI158
aI159
aI161
aI162
aI163
aI171
aI174
aI175
aI177
aI178
aI179
aI181
aI185
aI186
aI187
aI189
aI190
aI191
aI193
aI195
aI196
aI198
aI199
aI201
aI204
aI205
aI207
aI208
aI210
aI211
aI214
aI215
aI218
aI220
aI221
aI224
aI225
aI227
aI228
aI231
aI232
aI234
aI235
aI236
aI237
aI243
aI244
aI247
aI249
aI250
aI258
aI259
aI267
aI268
aI270
aI272
aI273
aI275
aI277
aI278
aI280
aI283
aI284
aI285
aI286
aI287
aI293
aI294
aI295
aI296
aI303
aI304
aI305
aI306
aI307
aI309
aI311
aI509
aI517
aI537
aI538
aI541
aI542
aI543
aI547
aI596
aI605
aI616
aI638
aI661
aI677
aI688
aI691
aI692
aI693
aI694
aI695
aI696
aI699
aI700
aI701
aI702
aI703
aI705
aI706
aI708
aI709
aI710
aI716
aI717
aI718
aI722
aI723
aI724
aI726
aI806
aI834
aI872
aI874
aI875
aI876
aI877
aI878
aI879
aI881
aI882
aI886
aI887
aI888
aI889
aI891
aI894
aI897
aI900
aI904
aI942
aI944
aI945
aI946
aI947
aI948
aI949
aI951
aI952
aI953
aI956
aI957
aI960
aI961
aI975
aI981
aI982
aI983
aI984
aI985
aI987
aI988
aI989
aI990
aI991
aI993
aI995
aI1008
aI1009
aI1011
aI1012
aI1013
aI1014
aI1047
aI1048
aI1049
aI1050
aI1051
aI1053
aI1054
aI1056
aI1058
aI1059
aI1061
aI1063
aI1075
aI1079
aI1085
aI1105
aI1114
aI1122
aI1123
aI1124
aI1125
aI1126
aI1129
aI1143
aI1151
aI1158
aI1164
aI1167
aI1176
aI1177
aI1178
aI1180
aI1183
aI1185
aI1187
aI1188
aI1189
aI1190
aI1191
aI1192
aI1193
aI1194
aI1195
aI1196
aI1198
aI1204
aI1211
aI1212
aI1215
aI1216
aI1230
aI1240
aI1241
aI1242
aI1246
aI1252
aI1253
aI1255
aI1256
aI1257
aI1258
aI1260
aI1261
aI1263
aI1272
aI1289
aI1296
aI1298
aI1412
aI1413
aI1417
aI1418
aI1421
aI1422
aI1423
aI1424
aI1425
aI1426
aI1427
aI1428
aI1429
aI1430
aI1431
aI1454
aI1455
aI1456
aI1458
aI1459
aI1462
aI1463
aI1482
aI1491
aI1493
aI1496
aI1497
aI1498
aI1499
aI1505
aI1506
aI1507
aI1508
aI1509
aI1533
aI1535
asS'/Users/tobias/projects/appengine/demo/eggs/coverage-3.0b3-py2.5-macosx-10.3-i386.egg/coverage/__init__.py'
p574
(lp575
I36
aI38
asS'/Users/tobias/projects/appengine/bridal/trunk/demo/eggs/zope.interface-3.5.1-py2.5-macosx-10.3-i386.egg/zope/interface/__init__.py'
p576
(lp577
I64
aI65
aI66
aI67
aI68
aI69
aI70
aI73
aI76
aI78
aI80
aI52
aI53
aI55
aI58
aI59
aI61
aI63
asS'/Users/tobias/projects/appengine/demo/eggs/zope.tal-3.5.1-py2.5.egg/zope/tal/xmlparser.py'
p578
(lp579
I19
aI20
aI23
aI25
aI28
aI29
aI30
aI31
aI32
aI33
aI34
aI35
aI36
aI37
aI38
aI39
aI40
aI41
aI42
aI43
aI44
aI45
aI46
aI47
aI50
aI67
aI73
aI76
aI84
aI88
aI91
aI94
asS'/Users/tobias/projects/appengine/bridal/trunk/demo/eggs/zope.tal-3.5.1-py2.5.egg/zope/tal/translationcontext.py'
p580
(lp581
I34
aI35
aI37
aI38
aI39
aI40
aI20
aI21
aI23
aI24
aI26
aI27
asS'/Users/tobias/projects/appengine/bridal/trunk/demo/src/demo/__init__.py'
p582
(lp583
I1
ass.